(lp0
(lp1
F212.1660829371904
aF200.978746198533
aF189.12137869587878
aF177.94228239315757
aF167.52382976205018
aF157.78724394986003
aF148.64736842600743
aF140.03190322497318
aF131.88166858943723
aF124.1488591392649
aF116.79559523836029
aF109.79288517882296
aF103.11978453445282
aF96.76250578758071
aF90.71327510567502
aF84.96883659617485
aF79.5286567855636
aF74.39303812821215
aF69.56143864035653
aF65.03126329793872
aF60.79725490834737
aF56.851443040475345
aF53.183491162158255
aF49.78124905858035
aF46.6313511322317
aF43.719760778608546
aF41.032215269130255
aF38.55456190780785
aF36.27299537218708
aF34.17421361992225
aF32.245510823711825
aF30.474823998614912
aF28.85074721443592
aF27.362524429212122
aF26.000029384265677
aF24.753738764854255
aF23.614702956138633
aF22.57451718962193
aF21.62529465744038
aF20.75964225031537
aF19.970638926480127
aF19.251816312943088
aF18.597140937588204
aF18.00099744474711
aF17.458172209903093
aF16.963836896141288
aF16.513531648113904
aF16.103147770451585
aF15.7289098684559
aF15.387357530127765
aF15.075326697620456
aF14.789930915272695
aF14.528542655392219
aF14.288774917924206
aF14.068463282007748
aF13.865648561434352
aF13.67856018638745
aF13.50560040367958
aF13.345329359138965
aF13.196451100128364
aF13.057800514059693
aF12.928331200404589
aF12.807104258979566
aF12.693277965916154
aF12.586098300317666
aF12.48489027872715
aF12.389050050764263
aF12.298037707236936
aF12.211370751343749
aF12.12861818395048
aF12.049395155089812
aF11.973358135578865
aF11.90020056480473
aF11.829648933145933
aF11.761459260072591
aF11.695413931606373
aF11.631318863463974
aF11.569000958798316
aF11.508305831959925
aF11.449095772096458
aF11.391247922678783
aF11.33465265517479
aF11.279212117082713
aF11.22483893638458
aF11.171455066187578
aF11.118990754892785
aF11.067383628670473
aF11.016577874338168
aF10.966523511935874
aF10.917175747384091
aF10.868494396598445
aF10.820443373328684
aF10.772990233799801
aF10.726105771960135
aF10.679763659799239
aF10.633940127787966
aF10.588613681023899
aF10.543764847140649
aF10.499375952466675
aF10.455430923300579
aF10.411915109511689
aF10.368815127980152
aF10.326118723664086
aF10.283814646323787
aF10.241892541151872
aF10.200342851750735
aF10.159156734072038
aF10.11832598008704
aF10.077842950093013
aF10.037700512683443
aF9.997891991518319
aF9.958411118126755
aF9.919251990060909
aF9.88040903379591
aF9.84187697183852
aF9.803650793567803
aF9.765725729384135
aF9.728097227791128
aF9.690760935076845
aF9.653712677298365
aF9.616948444307104
aF9.58046437558226
aF9.544256747664978
aF9.508321963010633
aF9.472656540096155
aF9.437257104638089
aF9.402120381793635
aF9.367243189231187
aF9.332622430969392
aF9.298255091895916
aF9.264138232886689
aF9.230268986455208
aF9.196644552870236
aF9.163262196686286
aF9.13011924363846
aF9.097213077858246
aF9.064541139371858
aF9.032100921847473
aF8.999889970560908
aF8.967905880553747
aF8.936146294959755
aF8.904608903479286
aF8.873291440983055
aF8.842191686229173
aF8.811307460678817
aF8.780636627398433
aF8.750177090036757
aF8.719926791867062
aF8.689883714886195
aF8.660045878962366
aF8.630411341025466
aF8.600978194293665
aF8.571744567531645
aF8.542708624335553
aF8.513868562441003
aF8.485222613050887
aF8.45676904017965
aF8.428506140012107
aF8.400432240274068
aF8.372545699613257
aF8.344844906988827
aF8.317328281068237
aF8.289994269630297
aF8.262841348973465
aF8.23586802332874
aF8.209072824276491
aF8.182454310166792
aF8.156011065542737
aF8.129741700566923
aF8.103644850450474
aF8.077719174884724
aF8.051963357475605
aF8.026376105180688
aF8.000956147749003
aF7.975702237163772
aF7.950613147088203
aF7.925687672314596
aF7.900924628216937
aF7.876322850207269
aF7.8518811931960055
aF7.8275985310566885
aF7.803473756095092
aF7.779505778523435
aF7.7556935259395585
aF7.732035942811605
aF7.708531989968426
aF7.685180644096135
aF7.661980897240712
aF7.638931756317455
aF7.616032242627077
aF7.593281391379137
aF7.570678251222501
aF7.548221883783828
aF7.525911363213599
aF7.503745775740218
aF7.481724219232493
aF7.4598458027705155
aF7.4381096462250955
aF7.416514879846047
aF7.395060643859464
aF7.373746088073988
aF7.352570371496279
aF7.331532661955925
aF7.310632135739574
aF7.289867977234675
aF7.269239378582821
aF7.24874553934243
aF7.228385666161562
aF7.208158972459855
aF7.188064678120583
aF7.168102009192184
aF7.148270197599564
aF7.12856848086502
aF7.108996101838806
aF7.089552308439293
aF7.070236353402593
aF7.051047494041794
aF7.031984992015351
aF7.0130481131049764
aF6.9942361270026545
aF6.975548307106717
aF6.956983930326989
aF6.938542276898705
aF6.920222630205272
aF6.9020242766095565
aF6.8839465052936415
aF6.865988608107001
aF6.848149879422689
aF6.830429616001646
aF6.812827116864861
aF6.795341683173141
aF6.777972618114466
aF6.760719226798613
aF6.743580816159088
aF6.72655669486186
aF6.709646173220973
aF6.6928485631209265
aF6.676163177945192
aF6.659589332511296
aF6.643126343011767
aF6.626773526961069
aF6.6105302031481274
aF6.594395691594467
aF6.578369313517611
aF6.562450391299643
aF6.546638248460705
aF6.5309322096372115
aF6.515331600564743
aF6.4998357480652755
aF6.484443980038643
aF6.469155625458045
aF6.453970014369421
aF6.438886477894501
aF6.423904348237417
aF6.409022958694667
aF6.394241643668245
aF6.379559738681776
aF6.364976580399571
aF6.350491506648334
aF6.336103856441518
aF6.321812970005982
aF6.307618188810905
aF6.293518855598964
aF6.279514314419273
aF6.265603910662278
aF6.251786991096377
aF6.238062903905997
aF6.224430998731229
aF6.210890626708684
aF6.197441140513645
aF6.184081894403208
aF6.170812244260438
aF6.15763154763939
aF6.144539163810872
aF6.131534453808815
aF6.1186167804773035
aF6.1057855085179344
aF6.09304000453761
aF6.080379637096621
aF6.067803776756832
aF6.055311796130069
aF6.042903069926518
aF6.03057697500296
aF6.018332890411073
aF6.006170197445428
aF5.994088279691194
aF5.982086523071631
aF5.970164315895118
aF5.958321048901822
aF5.946556115309758
aF5.934868910860456
aF5.923258833863903
aF5.911725285242897
aF5.900267668576811
aF5.888885390144447
aF5.877577858966264
aF5.866344486845815
aF5.855184688410294
aF5.844097881150257
aF5.833083485458417
aa(lp2
F221.48746188333007
aF195.881319405847
aF169.781417751178
aF146.93620273085213
aF127.36653715423084
aF110.59044054205327
aF96.15880835401283
aF83.7136941332074
aF72.97223066558493
aF63.70595973923866
aF55.72533016775063
aF48.869127110038185
aF42.99743275001863
aF37.986963160773385
aF33.727983561730824
aF30.122270267802616
aF27.08175834203907
aF24.52762082458359
aF22.389597410493145
aF20.605445021063257
aF19.12042720545152
aF17.886795429692064
aF16.86324288324934
aF16.014330449730046
aF15.309895751973848
aF14.7244611838118
aF14.236657369805684
aF13.828676268105799
aF13.485764564095323
aF13.195764112852338
aF12.948702614465871
aF12.736434775030325
aF12.55233202330526
aF12.391017385882936
aF12.248141267139168
aF12.120193502549853
aF12.004347025037285
aF11.89832869015574
aF11.800313155573104
aF11.708836134352666
aF11.622723790840158
aF11.541035489686998
aF11.463017522424291
aF11.38806581095342
aF11.315695918648565
aF11.245518987000569
aF11.17722246101347
aF11.110554673491793
aF11.045312531205411
aF10.981331689118111
aF10.918478716696205
aF10.856644856706648
aF10.795741055393474
aF10.735694006544005
aF10.676443003361527
aF10.617937433462622
aF10.560134785580003
aF10.502999063215377
aF10.446499521820446
aF10.390609663124545
aF10.335306433821673
aF10.280569586661377
aF10.226381170608278
aF10.172725123593889
aF10.119586946833037
aF10.06695344400804
aF10.014812512061289
aF9.963152973065718
aF9.911964438809301
aF9.861237201448017
aF9.810962144945748
aF9.761130673102498
aF9.711734650830453
aF9.662766356020237
aF9.614218439880972
aF9.566083894067532
aF9.518356023250854
aF9.47102842205849
aF9.424094955528908
aF9.377549742394839
aF9.331387140648943
aF9.285601734952902
aF9.240188325539307
aF9.195141918324872
aF9.150457716009269
aF9.106131109977726
aF9.062157672862037
aF9.018533151642739
aF8.975253461197683
aF8.932314678221399
aF8.889713035453962
aF8.847444916169767
aF8.805506848886955
aF8.763895502265077
aF8.722607680165405
aF8.681640316853107
aF8.64099047232482
aF8.600655327748058
aF8.560632181001711
aF8.520918442309602
aF8.48151162995972
aF8.442409366104343
aF8.403609372636526
aF8.36510946713984
aF8.326907558908939
aF8.289001645038908
aF8.251389806582283
aF8.214070204772298
aF8.177041077312417
aF8.140300734730818
aF8.103847556800645
aF8.067679989025033
aF8.031796539187694
aF7.996195773968964
aF7.960876315627513
aF7.925836838748218
aF7.891076067056503
aF7.856592770299537
aF7.822385761194688
aF7.788453892445663
aF7.754796053826989
aF7.721411169336876
aF7.688298194419304
aF7.655456113255452
aF7.622883936125136
aF7.590580696838408
aF7.558545450237963
aF7.526777269772371
aF7.495275245140869
aF7.464038480009606
aF7.4330660897999605
aF7.402357199548835
aF7.371910941841449
aF7.341726454816605
aF7.31180288024443
aF7.282139361677024
aF7.252735042671677
aF7.223589065086854
aF7.194700567450737
aF7.166068683402387
aF7.137692540205048
aF7.109571257331709
aF7.08170394512227
aF7.054089703512305
aF7.026727620832625
aF6.999616772679532
aF6.972756220854962
aF6.946145012375892
aF6.919782178552556
aF6.893666734134501
aF6.867797676523726
aF6.8421739850541226
aF6.816794620336153
aF6.791658523665724
aF6.766764616496395
aF6.74211179997357
aF6.717698954529516
aF6.693524939538021
aF6.669588593027364
aF6.645888731450116
aF6.622424149508529
aF6.599193620033876
aF6.576195893918283
aF6.553429700097539
aF6.530893745583207
aF6.508586715542394
aF6.486507273423591
aF6.464654061126701
aF6.443025699215726
aF6.4216207871722455
aF6.400437903687859
aF6.379475606993976
aF6.358732435226845
aF6.338206906826456
aF6.317897520967063
aF6.297802758017738
aF6.277921080031156
aF6.258250931258692
aF6.238790738690167
aF6.219538912616327
aF6.20049384721247
aF6.181653921141255
aF6.163017498173248
aF6.144582927823244
aF6.126348546000948
aF6.108312675674223
aF6.090473627543368
aF6.072829700724974
aF6.055379183443651
aF6.038120353730351
aF6.021051480125655
aF6.0041708223869685
aF5.987476632197788
aF5.9709671538784
aF5.954640625096015
aF5.9384952775739865
aF5.922529337798133
aF5.906741027719807
aF5.8911285654541325
aF5.875690165972743
aF5.86042404178993
aF5.845328403641425
aF5.83040146115488
aF5.815641423511321
aF5.801046500096828
aF5.786614901143742
aF5.772344838360823
aF5.7582345255516705
aF5.744282179221002
aF5.730486019168113
aF5.71684426906724
aF5.703355157034369
aF5.690016916180058
aF5.676827785147992
aF5.663786008639114
aF5.65088983792076
aF5.63813753132105
aF5.625527354707882
aF5.613057581952806
aF5.600726495379435
aF5.588532386196246
aF5.576473554914151
aF5.564548311748199
aF5.552754977004056
aF5.541091881448781
aF5.529557366666271
aF5.518149785397438
aF5.506867501864987
aF5.4957088920832895
aF5.484672344153186
aF5.473756258541987
aF5.462959048348976
aF5.45227913955635
aF5.44171497126611
aF5.431264995922857
aF5.420927679522858
aF5.410701501809669
aF5.400584956456429
aF5.390576551235192
aF5.380674808173603
aF5.370878263698975
aF5.3611854687704055
aF5.351594988998817
aF5.342105404755586
aF5.3327153112697125
aF5.323423318714197
aF5.314228052281523
aF5.305128152248859
aF5.296122274033131
aF5.287209088236331
aF5.278387280681302
aF5.269655552438307
aF5.261012619842758
aF5.2524572145043305
aF5.243988083307744
aF5.235603988405523
aF5.2273037072031
aF5.219086032336435
aF5.210949771642421
aF5.202893748122534
aF5.194916799899758
aF5.187017780169257
aF5.179195557142901
aF5.171449013988086
aF5.1637770487608545
aF5.156178574333866
aF5.1486525183191985
aF5.14119782298639
aF5.133813445175814
aF5.126498356207867
aF5.119251541787813
aF5.112072001906962
aF5.104958750739888
aF5.097910816538386
aF5.090927241522021
aF5.084007081765641
aF5.077149407083948
aF5.0703533009134345
aF5.063617860191706
aF5.0569421952345435
aF5.050325429610703
aF5.043766700014759
aF5.037265156138046
aF5.0308199605379365
aF5.024430288505549
aF5.018095327932061
aF5.011814279173761
aF5.005586354915894
aF4.999410780035655
aF4.993286791464135
aF4.987213638047659
aF4.981190580408421
aF4.9752168908044805
aF4.969291852989601
aF4.963414762072533
aF4.95758492437617
aF4.951801657296601
aF4.9460642891620825
aF4.940372159092083
aF4.934724616856547
aa(lp3
F197.21587953310868
aF161.0487114763771
aF126.41933737425856
aF99.58305969029517
aF79.66322384517787
aF64.88562576616125
aF53.7974865307218
aF45.361978072858946
aF38.86029527977279
aF33.792534149683426
aF29.805386278969863
aF26.643641264958426
aF24.118705759991776
aF22.088413016018478
aF20.44399420321476
aF19.1014547690119
aF17.99562767486482
aF17.07587748283246
aF16.30286915996536
aF15.646070259148386
aF15.081793080013071
aF14.59165459132785
aF14.161368282535923
aF13.779801892982572
aF13.438247418941428
aF13.129859124262888
aF12.849223116270053
aF12.592028894758862
aF12.354819229072023
aF12.134799766702447
aF11.929693950290236
aF11.737632185704927
aF11.557066861478996
aF11.386706881918712
aF11.225466954046652
aF11.072428062850921
aF10.926806466079016
aF10.78792920936408
aF10.655214660624738
aF10.528156932713914
aF10.406313338178
aF10.289294224514638
aF10.176754690931629
aF10.068387801953987
aF9.963918999323353
aF9.86310147884489
aF9.76571234854085
aF9.67154942261959
aF9.580428535255292
aF9.492181281128758
aF9.406653107678173
aF9.323701698217914
aF9.243195596373855
aF9.165013031313876
aF9.089040910512681
aF9.015173952660678
aF8.943313938096372
aF8.87336905803166
aF8.805253347027865
aF8.738886185797277
aF8.674191863565234
aF8.611099191010782
aF8.549541156281675
aF8.489454617805368
aF8.43078002863686
aF8.373461187932278
aF8.317445015843484
aF8.262681348719045
aF8.209122751988115
aF8.156724348514977
aF8.10544366055529
aF8.055240463731664
aF8.006076651686458
aF7.95791611026999
aF7.910724600290359
aF7.864469647991429
aF7.819120442543058
aF7.774647739925943
aF7.731023772676252
aF7.68822216502367
aF7.646217853015261
aF7.604987009265573
aF7.564506972014627
aF7.52475617821038
aF7.485714100360619
aF7.4473611869247165
aF7.40967880603634
aF7.372649192366273
aF7.336255396949962
aF7.300481239817547
aF7.265311265275955
aF7.230730699702449
aF7.196725411718168
aF7.163281874617802
aF7.130387130939025
aF7.098028759061106
aF7.06619484172858
aF7.034873936400497
aF7.004055047331192
aF6.973727599292758
aF6.943881412853734
aF6.914506681132689
aF6.885593947948701
aF6.857134087294982
aF6.829118284064593
aF6.801538015961068
aF6.774385036529349
aF6.7476513592458165
aF6.721329242608859
aF6.695411176174137
aF6.669889867481558
aF6.644758229822972
aF6.620009370803019
aF6.595636581646719
aF6.571633327210477
aF6.547993236655082
aF6.524710094741234
aF6.501777833710385
aF6.4791905257152616
aF6.4569423757665385
aF6.435027715163765
aF6.413440995380517
aF6.392176782374775
aF6.371229751297874
aF6.350594681576349
aF6.330266452342324
aF6.310240038189784
aF6.290510505235094
aF6.27107300746137
aF6.2519227833276005
aF6.233055152624352
aF6.2144655135590385
aF6.196149340054699
aF6.178102179247221
aF6.160319649166779
aF6.142797436590116
aF6.125531295051249
aF6.108517042998697
aF6.091750562088297
aF6.075227795601225
aF6.058944746977541
aF6.042897478456169
aF6.027082109812847
aF6.011494817188191
aF5.996131831998227
aF5.98098943992079
aF5.966063979951119
aF5.9513518435206665
aF5.9368494736736785
aF5.922553364296102
aF5.90846005939226
aF5.894566152404472
aF5.880868285571891
aF5.867363149324275
aF5.854047481707336
aF5.840918067836499
aF5.827971739375676
aF5.815205374038696
aF5.802615895110355
aF5.790200270985133
aF5.777955514721164
aF5.765878683607532
aF5.753966878743122
aF5.742217244625281
aF5.730626968747004
aF5.7191932812009645
aF5.707913454289448
aF5.6967848021389065
aF5.685804680318297
aF5.674970485460108
aF5.664279654883444
aF5.653729666218501
aF5.643318037031656
aF5.633042324450749
aF5.622900124790054
aF5.612889073174692
aF5.6030068431637385
aF5.5932511463722925
aF5.583619732091886
aF5.574110386909195
aF5.564720934322832
aF5.555449234358321
aF5.546293183180953
aF5.537250712706529
aF5.52831979021032
aF5.519498417933669
aF5.5107846326889005
aF5.502176505462124
aF5.4936721410144385
aF5.485269677481188
aF5.476967285969909
aF5.468763170156569
aF5.460655565880775
aF5.4526427407395905
aF5.444722993680516
aF5.436894654593681
aF5.429156083903301
aF5.421505672158747
aF5.41394183962535
aF5.406463035875074
aF5.3990677393773145
aF5.391754457090002
aF5.384521724051167
aF5.377368102971074
aF5.370292183825346
aF5.363292583448999
aF5.356367945131643
aF5.349516938214202
aF5.342738257687001
aF5.336030623789669
aF5.329392781612843
aF5.322823500701976
aF5.316321574663205
aF5.309885820771707
aF5.303515079582305
aF5.297208214542896
aF5.2909641116105215
aF5.284781678870211
aF5.278659846156992
aF5.272597564680827
aF5.266593806654887
aF5.260647564927028
aF5.25475785261478
aF5.2489237027437685
aF5.243144167889646
aF5.237418319823966
aF5.2317452491634695
aF5.22612406502339
aF5.22055389467465
aF5.215033883204795
aF5.2095631931832305
aF5.204141004330252
aF5.198766513190298
aF5.193438932809267
aF5.188157492416093
aF5.18292143710843
aF5.177730027542613
aF5.172582539627876
aF5.167478264224867
aF5.1624165068483645
aF5.157396587374347
aF5.152417839751441
aF5.147479611716559
aF5.142581264514918
aF5.1377221726243345
aF5.132901723483913
aF5.128119317226925
aF5.123374366417998
aF5.118666295794668
aF5.113994542013061
aF5.109358553397917
aF5.10475778969674
aF5.100191721838277
aF5.095659831694968
aF5.091161611849744
aF5.086696565366767
aF5.082264205566384
aF5.077864055804042
aF5.073495649253247
aF5.069158528692482
aF5.064852246296104
aF5.060576363429095
aF5.056330450445721
aF5.052114086491926
aF5.047926859311673
aF5.043768365056831
aF5.039638208100836
aF5.035536000856042
aF5.03146136359464
aF5.0274139242730405
aF5.023393318359968
aF5.019399188667831
aF5.015431185187623
aF5.011488964927086
aF5.00757219175236
aF5.003680536232699
aF4.9998136754886255
aF4.995971293043058
aF4.992153078675707
aF4.988358728280522
aF4.984587943726087
aF4.980840432719148
aF4.977115908670885
aF4.97341409056625
aF4.969734702836022
aF4.9660774752317
aF4.962442142703103
aF4.958828445278715
aF4.955236127948597
aF4.951664940549987
aF4.948114637655372
aF4.944584978463091
aF4.941075726690462
aF4.937586650469168
aF4.934117522243189
aF4.930668118668937
aF4.927238220517669
aF4.923827612580239
aF4.92043608357392
aF4.917063426051424
aa(lp4
F203.40072838911055
aF132.25248327633557
aF75.32662158351992
aF45.42779045405531
aF32.38010018030156
aF26.771175158783635
aF23.845258586815113
aF21.82310037899753
aF20.179919696896455
aF18.784381343348418
aF17.594537029859197
aF16.581253911439497
aF15.717411845303335
aF14.978823419359848
aF14.344966906435458
aF13.79874471998873
aF13.325939646091395
aF12.914707416432279
aF12.555168967975561
aF12.239083348425881
aF11.959578102039814
aF11.710923385071531
aF11.488342075335282
aF11.28785051533837
aF11.106125380413925
aF10.940392658742892
aF10.788335211668187
aF10.648015873743187
aF10.51781351528713
aF10.396369901756358
aF10.282545537927735
aF10.175382984168582
aF10.074076383575587
aF9.977946149448552
aF9.886417938736617
aF9.799005184215092
aF9.71529458087574
aF9.63493402429474
aF9.55762258390547
aF9.483102164965
aF9.411150571918977
aF9.341575734826254
aF9.274210901161666
aF9.208910629064182
aF9.145547446099503
aF9.084009060831107
aF9.02419603375179
aF8.966019830088202
aF8.909401190222216
aF8.854268764431982
aF8.800557967738134
aF8.748210018163793
aF8.697171127949169
aF8.647391822425549
aF8.598826365531295
aF8.551432274497827
aF8.505169909171613
aF8.460002123874457
aF8.41589397172543
aF8.372812453022503
aF8.330726300674822
aF8.289605796831536
aF8.249422615812856
aF8.2101496892482
aF8.171761089990232
aF8.134231931926864
aF8.09753828327481
aF8.061657091322443
aF8.026566116911424
aF7.9922438772149516
aF7.958669595595149
aF7.925823157510434
aF7.893685071601642
aF7.8622364352184855
aF7.831458903759123
aF7.801334663289886
aF7.77184640599132
aF7.7429773080436295
aF7.714711009621027
aF7.687031596712689
aF7.65992358452835
aF7.633371902281555
aF7.607361879172423
aF7.581879231417089
aF7.556910050192469
aF7.532440790382935
aF7.508458260031503
aF7.484949610410875
aF7.461902326641999
aF7.43930421879702
aF7.417143413432244
aF7.3954083455040704
aF7.374087750626945
aF7.353170657638323
aF7.332646381439569
aF7.312504516086488
aF7.292734928106381
aF7.273327750021545
aF7.25427337406191
aF7.235562446051728
aF7.217185859457089
aF7.199134749583145
aF7.181400487910864
aF7.163974676565012
aF7.14684914290568
aF7.130015934236988
aF7.113467312627338
aF7.097195749836191
aF7.081193922343246
aF7.0654547064762365
aF7.049971173633994
aF7.034736585601985
aF7.019744389958016
aF7.00498821556542
aF6.990461868152384
aF6.976159325975152
aF6.9620747355638635
aF6.948202407549594
aF6.934536812571127
aF6.921072577260704
aF6.907804480307229
aF6.894727448596349
aF6.881836553426085
aF6.8691270067975605
aF6.856594157779597
aF6.844233488946616
aF6.832040612888864
aF6.820011268794346
aF6.808141319101658
aF6.796426746222709
aF6.7848636493349455
aF6.7734482412420824
aF6.762176845302505
aF6.751045892424713
aF6.740051918128957
aF6.729191559674254
aF6.718461553249835
aF6.707858731230532
aF6.697380019494906
aF6.687022434805463
aF6.676783082250049
aF6.666659152743671
aF6.65664792058954
aF6.646746741098889
aF6.636953048268271
aF6.627264352513706
aF6.617678238460643
aF6.60819236278877
aF6.598804452130889
aF6.589512301024818
aF6.5803137699174385
aF6.57120678321991
aF6.562189327413135
aF6.5532594492026295
aF6.544415253721605
aF6.5356549027817294
aF6.526976613170197
aF6.518378654992471
aF6.5098593500596715
aF6.501417070319772
aF6.493050236331492
aF6.484757315780097
aF6.476536822034394
aF6.468387312743551
aF6.4603073884733675
aF6.452295691380757
aF6.44435090392571
aF6.436471747619866
aF6.428656981810857
aF6.420905402501546
aF6.413215841203248
aF6.405587163822373
aF6.398018269579362
aF6.39050808995936
aF6.383055587693681
aF6.375659755771398
aF6.368319616480301
aF6.3610342204763155
aF6.3538026458808705
aF6.3466239974053735
aF6.339497405502012
aF6.332422025540366
aF6.325397037009
aF6.318421642741405
aF6.311495068165689
aF6.304616560577303
aF6.2977853884341215
aF6.291000840673497
aF6.284262226050377
aF6.277568872496053
aF6.270920126497016
aF6.264315352493197
aF6.257753932295253
aF6.251235264519995
aF6.244758764043963
aF6.238323861474035
aF6.231930002635126
aF6.2255766480740995
aF6.219263272579459
aF6.21298936471665
aF6.206754426378048
aF6.200557972347681
aF6.194399529879812
aF6.188278638291237
aF6.182194848566914
aF6.176147722978199
aF6.1701368347137
aF6.164161767522144
aF6.158222115366879
aF6.152317482091737
aF6.146447481097933
aF6.140611735031512
aF6.134809875481184
aF6.129041542686057
aF6.123306385253164
aF6.117604059884256
aF6.111934231111713
aF6.106296571043329
aF6.100690759115397
aF6.0951164818542996
aF6.089573432645853
aF6.084061311512512
aF6.078579824898069
aF6.073128685459411
aF6.067707611865516
aF6.062316328603063
aF6.056954565788692
aF6.0516220589875065
aF6.046318549037917
aF6.041043781882157
aF6.035797508402757
aF6.03057948426447
aF6.025389469761613
aF6.020227229670644
aF6.015092533107646
aF6.009985153390826
aF6.004904867907586
aF5.999851457986226
aF5.994824708771995
aF5.989824409107408
aF5.984850351416711
aF5.9799023315941975
aF5.97498014889649
aF5.970083605838486
aF5.965212508092857
aF5.960366664393071
aF5.955545886439678
aF5.9507499888099336
aF5.945978788870476
aF5.941232106693067
aF5.936509764973154
aF5.931811588951472
aF5.927137406338035
aF5.922487047239127
aF5.9178603440865185
aF5.913257131569335
aF5.908677246568255
aF5.904120528091926
aF5.899586817215676
aF5.895075957022316
aF5.890587792545007
aF5.8861221707121985
aF5.881678940294309
aF5.877257951852452
aF5.872859057688904
aF5.86848211179918
aF5.864126969826009
aF5.859793489014659
aF5.855481528170066
aF5.851190947615314
aF5.84692160915159
aF5.842673376019601
aF5.838446112862282
aF5.834239685688793
aF5.83005396183991
aF5.825888809954451
aF5.821744099936984
aF5.8176197029266525
aF5.8135154912670695
aF5.809431338477359
aF5.805367119224004
aF5.80132270929393
aF5.797297985568356
aF5.793292825997671
aF5.789307109577081
aF5.785340716323262
aF5.7813935272516535
aF5.7774654243546735
aF5.7735562905806646
aF5.769666009813605
aF5.765794466853377
aF5.761941547397004
aF5.758107138020246
aF5.754291126160079
aF5.750493400097618
aF5.746713848941741
aF5.742952362613204
aF5.739208831829411
aF5.735483148089575
aF5.7317752036605745
aa(lp5
F213.3606002286018
aF201.82342916176725
aF189.61714806531862
aF178.1376728277031
aF167.4578887260329
aF157.48112624651247
aF148.10723736863784
aF139.25348900464377
aF130.85422363763078
aF122.85807773249924
aF115.22551545880094
aF107.92696649735386
aF100.94153932614525
aF94.2562765927548
aF87.86584946240325
aF81.77235718760436
aF75.98459249016568
aF70.5160409555096
aF65.3813455574378
aF60.59196282425983
aF56.152570920130024
aF52.05960123623657
aF48.30208225100171
aF44.86384071484728
aF41.725850192007755
aF38.868005661497726
aF36.27019206223464
aF33.91282587304777
aF31.777096205808807
aF29.84506567164794
aF28.099716011546263
aF26.52497396010288
aF25.105728054149488
aF23.827837456637933
aF22.67813147706149
aF21.64439884592591
aF20.715366845444745
aF19.880671304387036
aF19.13081901898463
aF18.4571443859461
aF17.851762019446365
aF17.30751696505554
aF16.817933893222026
aF16.377166402934492
aF15.97994732270023
aF15.621540676899933
aF15.29769579750051
aF15.004603905000081
aF14.738857356292403
aF14.497411657410218
aF14.277550261958298
aF14.076852117694987
aF13.893161880734187
aF13.724562686249513
aF13.569351343844232
aF13.426015812814647
aF13.293214805661455
aF13.169759365983884
aF13.054596268196686
aF12.946793090416415
aF12.845524817642538
aF12.750061839422601
aF12.65975921408186
aF12.57404707994884
aF12.492422102548089
aF12.414439855238884
aF12.339708039103161
aF12.2678804559059
aF12.198651655591977
aF12.131752186989273
aF12.06694438712936
aF12.00401865086237
aF11.942790128227154
aF11.883095802356463
aF11.82479190555881
aF11.767751635651567
aF11.71186313864306
aF11.657027727503598
aF11.60315831005305
aF11.550178001951954
aF11.49801890344292
aF11.446621020872357
aF11.395931316156185
aF11.345902869259868
aF11.296494140462324
aF11.247668320689321
aF11.19939275954966
aF11.151638461905327
aF11.104379644871447
aF11.057593348084664
aF11.011259090916719
aF10.96535857104974
aF10.919875399486347
aF10.874794867648337
aF10.830103742729769
aF10.78579008792449
aF10.741843104548792
aF10.69825299343205
aF10.655010833262232
aF10.612108473846838
aF10.569538442493762
aF10.52729386193011
aF10.485368378366132
aF10.443756098477818
aF10.402451534228108
aF10.361449554576257
aF10.320745343238464
aF10.280334361763103
aF10.240212317272745
aF10.2003751343019
aF10.160818930229144
aF10.121539993861672
aF10.082534766783766
aF10.043799827127383
aF10.00533187546446
aF9.967127722556143
aF9.92918427872688
aF9.891498544658576
aF9.85406760342544
aF9.816888613611317
aF9.779958803370915
aF9.743275465312916
aF9.706835952097734
aF9.670637672656348
aF9.63467808894687
aF9.598954713177445
aF9.563465105430948
aF9.528206871636568
aF9.493177661839063
aF9.458375168723048
aF9.423797126355074
aF9.389441309110628
aF9.355305530757667
aF9.321387643671434
aF9.287685538159486
aF9.254197141877157
aF9.220920419317935
aF9.18785337136374
aF9.15499403488308
aF9.122340482366713
aF9.089890821590778
aF9.057643195300592
aF9.025595780907471
aF8.993746790193214
aF8.962094469017396
aF8.930637097023258
aF8.8993729873387
aF8.868300486269836
aF8.837417972984289
aF8.806723859183021
aF8.776216588758542
aF8.745894637438834
aF8.715756512416077
aF8.685800751959514
aF8.656025925012075
aF8.62643063077103
aF8.597013498252108
aF8.567773185837751
aF8.53870838080969
aF8.50981779886615
aF8.48110018362442
aF8.452554306109148
aF8.424178964227304
aF8.395972982230369
aF8.367935210164545
aF8.34006452330992
aF8.312359821609249
aF8.284820029087399
aF8.25744409326231
aF8.230230984548356
aF8.203179695652938
aF8.176289240967481
aF8.149558655953395
aF8.122986996524325
aF8.096573338425278
aF8.070316776609676
aF8.04421642461517
aF8.018271413939274
aF7.992480893415389
aF7.966844028590204
aF7.941360001103542
aF7.916028008070898
aF7.890847261470138
aF7.8658169875325195
aF7.840936426139143
aF7.816204830223415
aF7.791621465180269
aF7.767185608282658
aF7.742896548106223
aF7.718753583962383
aF7.694756025340821
aF7.670903191361474
aF7.647194410237024
aF7.623629018745886
aF7.600206361716565
aF7.576925791523408
aF7.553786667594674
aF7.530788355932497
aF7.50793022864601
aF7.485211663497113
aF7.462632043459558
aF7.440190756291604
aF7.417887194122199
aF7.395720753051162
aF7.373690832763173
aF7.351796836156064
aF7.330038168983145
aF7.3084142395098315
aF7.286924458184528
aF7.265568237323867
aF7.244344990812056
aF7.223254133814489
aF7.20229508250562
aF7.1814672538105455
aF7.160770065160877
aF7.140202934264121
aF7.119765278886738
aF7.099456516650641
aF7.0792760648430235
aF7.059223340238914
aF7.039297758936879
aF7.019498736206984
aF6.999825686351093
aF6.98027802257528
aF6.960855156873768
aF6.941556499924415
aF6.922381460995261
aF6.903329447861851
aF6.884399866735013
aF6.865592122198867
aF6.846905617158518
aF6.8283397527972856
aF6.809893928543009
aF6.791567542043189
aF6.773359989148508
aF6.755270663904462
aF6.737298958550699
aF6.719444263527749
aF6.701705967490849
aF6.684083457330402
aF6.666576118198831
aF6.64918333354343
aF6.63190448514495
aF6.6147389531615275
aF6.59768611617761
aF6.580745351257702
aF6.563916034004477
aF6.547197538620956
aF6.530589237976638
aF6.514090503677002
aF6.497700706136341
aF6.481419214653602
aF6.465245397490838
aF6.449178621954198
aF6.433218254477079
aF6.417363660705214
aF6.401614205583569
aF6.385969253444658
aF6.370428168098199
aF6.354990312921841
aF6.339655050952776
aF6.324421744980065
aF6.3092897576374485
aF6.2942584514965345
aF6.2793271891601545
aF6.264495333355743
aF6.2497622470286
aF6.2351272934349
aF6.220589836234264
aF6.206149239581902
aF6.191804868220049
aF6.17755608756865
aF6.163402263815262
aF6.1493427640039755
aF6.135376956123272
aF6.1215042091929
aF6.107723893349332
aF6.094035379930225
aF6.080438041557368
aF6.066931252218312
aF6.053514387346556
aF6.0401868239002905
aF6.026947940439527
aF6.013797117201738
aF6.000733736175842
aF5.987757181174641
aF5.9748668379054095
aF5.962062094039096
aF5.9493423392775195
aF5.936706965419104
aF5.924155366422701
aF5.911686938469821
aF5.899301080025012
aF5.886997191894621
aF5.874774677283646
aF5.862632941851026
aF5.850571393763084
aF5.838589443745251
aF5.826686505132164
aF5.814861993915896
aa(lp6
F236.18855832761258
aF210.20195232104655
aF183.83659994004483
aF160.93913344761762
aF141.44650139753722
aF124.77068728141484
aF110.37590850196614
aF97.8435435339903
aF86.85518894989498
aF77.16931417577493
aF68.6020447922332
aF61.01208518724196
aF54.28885238909555
aF48.343226875457184
aF43.100555728732225
aF38.49559603049458
aF34.46907954501955
aF30.965582003790914
aF27.932397329094275
aF25.31913767244634
aF23.07780364214379
aF21.16310264152341
aF19.532839837756597
aF18.148260818100372
aF16.97427812457474
aF15.979557512812306
aF15.136470070308532
aF14.420933485859146
aF13.812172512235596
aF13.29242849563357
aF12.846643872251143
aF12.462142029513208
aF12.128317315182338
aF11.836344997977182
aF11.578916935745488
aF11.350005626832512
aF11.144657109825477
aF10.958811686970686
aF10.78915052017456
aF10.632965642636348
aF10.488050723557162
aF10.352609922059928
aF10.225182295914601
aF10.104579436556763
aF9.989834245492785
aF9.880159021986218
aF9.774911280674678
aF9.673565950020855
aF9.575692812653601
aF9.480938234416538
aF9.389010390206712
aF9.299667332691184
aF9.212707366731122
aF9.127961290156808
aF9.045286142851376
aF8.96456017325457
aF8.885678786549635
aF8.808551283885699
aF8.73309823870612
aF8.659249386058535
aF8.58694192489156
aF8.516119152835056
aF8.446729368678966
aF8.378724990421757
aF8.312061846943118
aF8.24669860953888
aF8.182596336134454
aF8.119718106275858
aF8.058028729243588
aF7.9974945110459075
aF7.938083068791758
aF7.879763183151769
aF7.82250468139293
aF7.76627834490635
aF7.711055836304649
aF7.656809642099934
aF7.603513027730501
aF7.55114000231766
aF7.499665291031279
aF7.449064313348116
aF7.399313165815457
aF7.350388608202002
aF7.3022680521364896
aF7.254929551513433
aF7.208351794093095
aF7.162514093840876
aF7.117396383651022
aF7.072979208178868
aF7.0292437165722435
aF6.986171654945501
aF6.9437453584844295
aF6.901947743105043
aF6.860762296618409
aF6.82017306937668
aF6.780164664394488
aF6.740722226953932
aF6.701831433713116
aF6.663478481347378
aF6.625650074758204
aF6.5883334148904895
aF6.5515161862012405
aF6.515186543825517
aF6.479333100486193
aF6.443944913194095
aF6.409011469784875
aF6.374522675338139
aF6.340468838522076
aF6.306840657906238
aF6.27362920828209
aF6.240825927029149
aF6.208422600562388
aF6.17641135089372
aF6.144784622338199
aF6.113535168393065
aF6.082656038815262
aF6.052140566920625
aF6.021982357125654
aF5.992175272750425
aF5.962713424099095
aF5.933591156832084
aF5.904803040642503
aF5.876343858246819
aF5.848208594698602
aF5.820392427031944
aF5.792890714239969
aF5.7656989875920575
aF5.738812941292179
aF5.7122284234794165
aF5.685941427570494
aF5.659948083943245
aF5.634244651958545
aF5.608827512317927
aF5.58369315975265
aF5.558838196039582
aF5.534259323338695
aF5.509953337845994
aF5.485917123755652
aF5.462147647524082
aF5.438641952429025
aF5.415397153415535
aF5.392410432221338
aF5.369679032773075
aF5.347200256845097
aF5.32497145997243
aF5.302990047609107
aF5.2812534715233
aF5.259759226420476
aF5.23850484678588
aF5.217487903937462
aF5.196706003281076
aF5.176156781758732
aF5.1558379054820636
aF5.135747067542241
aF5.115881985988239
aF5.096240401965518
aF5.076820078007118
aF5.0576187964694
aF5.038634358105016
aF5.019864580765782
aF5.0013072982281415
aF4.98296035913459
aF4.964821626044034
aF4.946888974584863
aF4.929160292704318
aF4.911633480008142
aF4.894306447184631
aF4.8771771155076715
aF4.860243416413042
aF4.84350329114323
aF4.826954690455416
aF4.810595574388212
aF4.794423912082441
aF4.77843768165169
aF4.762634870098691
aF4.747013473273212
aF4.731571495868323
aF4.716306951451054
aF4.70121786252425
aF4.6863022606165945
aF4.671558186397679
aF4.6569836898153145
aF4.642576830252658
aF4.628335676702204
aF4.614258307954961
aF4.60034281280196
aF4.586587290246598
aF4.572989849725599
aF4.559548611336846
aF4.546261706072653
aF4.5331272760565735
aF4.5201434747827385
aF4.507308467356155
aF4.49462043073277
aF4.482077553958279
aF4.469678038404811
aF4.457420098004106
aF4.4453019594769
aF4.4333218625573645
aF4.421478060212147
aF4.4097688188532
aF4.398192418544127
aF4.386747153199209
aF4.375431330775095
aF4.364243273454392
aF4.353181317821198
aF4.342243815027968
aF4.331429130953828
aF4.32073564635391
aF4.3101617569996975
aF4.299705873810197
aF4.289366422973958
aF4.279141846061846
aF4.269030600130563
aF4.259031157817001
aF4.24914200742321
aF4.2393616529926
aF4.229688614376841
aF4.22012142729385
aF4.210658643377144
aF4.201298830216408
aF4.192040571389477
aF4.182882466486151
aF4.173823131123683
aF4.164861196954277
aF4.155995311664817
aF4.147224138969023
aF4.138546358592059
aF4.1299606662480635
aF4.121465773610643
aF4.113060408276597
aF4.104743313723113
aF4.0965132492585825
aF4.088368989967315
aF4.0803093266484
aF4.0723330657488805
aF4.064439029291462
aF4.056626054797014
aF4.048892995202074
aF4.0412387187715435
aF4.033662109006847
aF4.026162064549626
aF4.0187374990814675
aF4.011387341219486
aF4.004110534408348
aF3.9969060368085687
aF3.989772821181628
aF3.982709874771855
aF3.9757161991853534
aF3.9687908102661713
aF3.96193273796979
aF3.955141026234333
aF3.948414732849378
aF3.941752929322767
aF3.9351547007454513
aF3.9286191456545683
aF3.9221453758949387
aF3.9157325164790664
aF3.9093797054457933
aF3.903086093717824
aF3.8968508449581547
aF3.8906731354256325
aF3.8845521538296834
aF3.878487101184352
aF3.87247719066183
aF3.8665216474455595
aF3.8606197085829366
aF3.8547706228378145
aF3.8489736505429626
aF3.8432280634523166
aF3.837533144593513
aF3.8318881881203524
aF3.826292499165728
aF3.8207453936945983
aF3.815246198357649
aF3.809794250345214
aF3.8043888972418176
aF3.7990294968813254
aF3.7937154172027294
aF3.7884460361067047
aF3.7832207413129635
aF3.778038930218374
aF3.7729000097560936
aF3.7678033962555384
aF3.7627485153034526
aF3.7577348016058694
aF3.7527616988512826
aF3.747828659574895
aF3.7429351450239414
aF3.738080625024304
aF3.7332645778482156
aF3.7284864900834216
aF3.7237458565032866
aF3.7190421799384805
aF3.7143749711498746
aF3.709743748702749
aF3.7051480388423568
aF3.700587375370917
aF3.6960612995259834
aF3.691569359860123
aF3.687111112122146
aa(lp7
F189.85931163974502
aF155.04279227605144
aF121.71548884656934
aF95.89909828056682
aF76.74238978400005
aF62.53222570360336
aF51.867899636101875
aF43.750639131458826
aF37.48831608831692
aF32.59976025108298
aF28.74523055237822
aF25.679803928941382
aF23.223019913123885
aF21.239296626909006
aF19.62521860476965
aF18.301099625151444
aF17.205178640930004
aF16.289456758725986
aF15.516595457663724
aF14.857540756253137
aF14.289674725890874
aF13.7953689578264
aF13.360853395167483
aF12.975335479724327
aF12.630317968228347
aF12.319073430524508
aF12.036241224868187
aF11.777519341435118
aF11.539429129437222
aF11.319135647614706
aF11.114310260875914
aF10.923025227912383
aF10.743672485984655
aF10.574900747691428
aF10.415566484814459
aF10.26469547993596
aF10.121452457082203
aF9.985116923191748
aF9.855063814311315
aF9.730747884059758
aF9.611691027520282
aF9.497471924219044
aF9.3877175262707
aF9.282096024715063
aF9.180311007808273
aF9.082096586362194
aF8.98721330813113
aF8.895444719379597
aF8.806594459808075
aF8.720483798941553
aF8.6369495393622
aF8.555842225871869
aF8.477024610623255
aF8.400370333061076
aF8.32576278063886
aF8.253094102068564
aF8.182264349596363
aF8.11318073068557
aF8.045756952693521
aF7.979912646780955
aF7.915572859493836
aF7.852667602289893
aF7.791131450809702
aF7.730903186971191
aF7.671925478035792
aF7.6141445876931675
aF7.557510114964811
aF7.501974757362238
aF7.44749409526828
aF7.394026394960771
aF7.341532428076663
aF7.289975305634871
aF7.239320325006149
aF7.189534828446304
aF7.140588072002159
aF7.092451103762318
aF7.045096650562562
aF6.998499012373171
aF6.95263396369312
aF6.907478661361096
aF6.863011558263986
aF6.819212322483671
aF6.776061761475097
aF6.733541750912487
aF6.691635167877394
aF6.650325828095985
aF6.60959842695897
aF6.569438484083179
aF6.529832291193364
aF6.490766863121395
aF6.452229891736151
aF6.414209702630427
aF6.376695214404544
aF6.339675900396509
aF6.303141752719003
aF6.267083248471805
aF6.23149131800669
aF6.196357315128901
aF6.161672989126132
aF6.127430458522147
aF6.093622186457774
aF6.060240957607443
aF6.027279856544397
aF5.994732247472385
aF5.962591755245938
aF5.930852247605675
aF5.899507818558665
aF5.868552772838066
aF5.837981611379095
aF5.807789017752448
aF5.777969845498889
aF5.748519106311957
aF5.719431959018695
aF5.690703699310646
aF5.662329750180499
aF5.634305653021736
aF5.606627059351097
aF5.579289723116132
aF5.552289493551863
aF5.525622308552824
aF5.499284188528518
aF5.473271230712192
aF5.447579603894612
aF5.422205543555845
aF5.397145347370021
aF5.372395371059097
aF5.347952024573374
aF5.323811768577365
aF5.2999711112214145
aF5.276426605180161
aF5.253174844940285
aF5.230212464320827
aF5.207536134210541
aF5.18514256050764
aF5.163028482247907
aF5.141190669908492
aF5.11962592387474
aF5.098331073058989
aF5.077302973660111
aF5.056538508054079
aF5.0360345838055425
aF5.015788132791898
aF4.995796110430996
aF4.976055495004968
aF4.956563287072344
aF4.937316508961892
aF4.918312204341255
aF4.899547437854485
aF4.881019294822563
aF4.862724881001624
aF4.8446613223936055
aF4.8268257651049025
aF4.80921537524811
aF4.791827338883183
aF4.774658861993582
aF4.757707170494358
aF4.740969510268113
aF4.724443147226082
aF4.708125367391245
aF4.692013477000575
aF4.676104802623981
aF4.660396691297372
aF4.644886510667721
aF4.6295716491479135
aF4.614449516079578
aF4.59951754190191
aF4.584773178325075
aF4.570213898506265
aF4.5558371972274045
aF4.541640591072881
aF4.527621618606275
aF4.513777840544777
aF4.500106839930581
aF4.486606222297978
aF4.473273615835653
aF4.460106671543112
aF4.447103063380756
aF4.434260488412955
aF4.421576666943458
aF4.4090493426428345
aF4.396676282667344
aF4.384455277768997
aF4.37238414239639
aF4.360460714786065
aF4.3486828570442935
aF4.337048455218851
aF4.325555419360887
aF4.314201683576688
aF4.302985206069167
aF4.291903969169292
aF4.280955979357152
aF4.270139267272942
aF4.259451887717722
aF4.2488919196441906
aF4.238457466137408
aF4.228146654385736
aF4.217957635642024
aF4.207888585175259
aF4.197937702212778
aF4.188103209873388
aF4.178383355091338
aF4.168776408531636
aF4.159280664496643
aF4.149894440824487
aF4.140616078779241
aF4.1314439429333145
aF4.122376421042188
aF4.113411923911809
aF4.104548885258959
aF4.095785761564668
aF4.087121031921153
aF4.078553197872472
aF4.070080783249079
aF4.061702333996712
aF4.05341641799973
aF4.045221624899267
aF4.037116565906382
aF4.0290998736106705
aF4.0211702017842645
aF4.0133262251817605
aF4.00556663933635
aF3.9978901603520853
aF3.9902955246929452
aF3.9827814889686266
aF3.9753468297175063
aF3.967990343186856
aF3.960710845110698
aF3.953507170485358
aF3.946378173343145
aF3.9393227265240993
aF3.9323397214463935
aF3.925428067875096
aF3.918586693690092
aF3.91181454465278
aF3.905110584172118
aF3.8984737930700786
aF3.8919031693466746
aF3.885397727944691
aF3.8789565005144087
aF3.872578535178357
aF3.8662628962963335
aF3.860008664230794
aF3.8538149351126996
aF3.8476808206081126
aF3.8416054476855144
aF3.8355879583840733
aF3.8296275095828847
aF3.823723272771435
aF3.8178744338211508
aF3.8120801927585375
aF3.806339763539553
aF3.800652373825631
aF3.7950172647612814
aF3.789433690753437
aF3.7839009192525634
aF3.778418230535628
aF3.772984917490991
aF3.767600285405313
aF3.7622636517524817
aF3.7569743459846756
aF3.751731709325557
aF3.746535094565662
aF3.7413838658600946
aF3.736277398528436
aF3.731215078857069
aF3.7261963039037336
aF3.7212204813045964
aF3.716287029083656
aF3.71139537546463
aF3.7065449586852166
aF3.701735226813995
aF3.696965637569611
aF3.6922356581426654
aF3.687544765019887
aF3.682892443811061
aF3.678278189078315
aF3.673701504168014
aF3.66916190104512
aF3.6646589001301155
aF3.6601920301384303
aF3.6557608279224367
aF3.6513648383158444
aF3.6470036139807003
aF3.64267671525678
aF3.638383710013586
aF3.6341241735046927
aF3.629897688224533
aF3.625703843767734
aF3.6215422366907633
aF3.6174124703760193
aF3.6133141548982888
aF3.609246906893533
aF3.605210349430078
aF3.6012041118820575
aF3.5972278298051714
aF3.5932811448147373
aF3.589363704465944
aF3.5854751621363237
aF3.5816151769105162
aF3.577783413467002
aa(lp8
F197.3585388251128
aF129.21480434052316
aF74.44652579269305
aF45.354439818084465
aF32.40713801574575
aF26.69836306848197
aF23.66974383964114
aF21.576207699536493
aF19.881357831220317
aF18.441731928097806
aF17.210110484995894
aF16.15610171764869
aF15.252614520030232
aF14.475653430451676
aF13.804800922068322
aF13.22298664601911
aF12.71598095460921
aF12.27190620657929
aF11.88083554207502
aF11.534468824702907
aF11.225865953357381
aF10.949224141833279
aF10.699691021416024
aF10.473207894378683
aF10.266378531746726
aF10.076359534234054
aF9.90076880734933
aF9.737609201604196
aF9.585204824709178
aF9.442147932143452
aF9.307254643756778
aF9.179528021918093
aF9.058127288199396
aF8.942342157698416
aF8.831571439119875
aF8.725305189995334
aF8.623109834438704
aF8.524615749391861
aF8.429506907591767
aF8.337512234147034
aF8.248398390884635
aF8.161963750382498
aF8.078033361413116
aF7.996454740693531
aF7.917094353472033
aF7.839834668493397
aF7.764571692046411
aF7.691212901746055
aF7.619675513977746
aF7.549885029976231
aF7.481774014703099
aF7.415281070333694
aF7.35034997252534
aF7.286928942933219
aF7.224970035843484
aF7.164428620458616
aF7.105262943420937
aF7.0474337586990465
aF6.990904014077138
aF6.9356385852488724
aF6.8816040499847215
aF6.828768496066371
aF6.777101357701919
aF6.726573275987508
aF6.677155979692422
aF6.6288221832386895
aF6.581545499243675
aF6.535300363408841
aF6.49006196988729
aF6.445806215553112
aF6.402509651841637
aF6.360149443033626
aF6.318703330030579
aF6.2781495988124965
aF6.2384670528921635
aF6.199634989183263
aF6.161633176786436
aF6.1244418382708545
aF6.088041633091366
aF6.052413642833927
aF6.017539358026375
aF5.983400666290064
aF5.949979841639887
aF5.917259534767602
aF5.885222764167258
aF5.853852907980945
aF5.823133696460765
aF5.793049204957275
aF5.7635838473573315
aF5.734722369904919
aF5.706449845348375
aF5.678751667364417
aF5.65161354521752
aF5.6250214986180715
aF5.598961852748642
aF5.573421233431673
aF5.548386562416177
aF5.523845052763784
aF5.499784204318561
aF5.476191799245735
aF5.453055897628537
aF5.43036483311316
aF5.408107208593777
aF5.386271891930992
aF5.364848011698484
aF5.343824952953618
aF5.323192353028622
aF5.302940097339858
aF5.2830583152136095
aF5.263537375726958
aF5.244367883563352
aF5.225540674882528
aF5.207046813205177
aF5.188877585312676
aF5.171024497162747
aF5.153479269822298
aF5.136233835418271
aF5.119280333108104
aF5.102611105071356
aF5.086218692523755
aF5.070095831755694
aF5.054235450196378
aF5.038630662505868
aF5.023274766696234
aF5.008161240283796
aF4.993283736473972
aF4.978636080380542
aF4.964212265280719
aF4.9500064489077555
aF4.936012949782408
aF4.922226243584914
aF4.908640959568501
aF4.8952518770161575
aF4.882053921741402
aF4.869042162634628
aF4.8562118082556625
aF4.843558203474003
aF4.831076826157114
aF4.818763283907977
aF4.80661331085245
aF4.794622764477209
aF4.782787622518768
aF4.7711039799040815
aF4.759568045743188
aF4.748176140374365
aF4.736924692461785
aF4.725810236146151
aF4.714829408248466
aF4.703978945526776
aF4.693255681986197
aF4.6826565462419465
aF4.672178558935469
aF4.661818830203392
aF4.651574557199198
aF4.641443021667213
aF4.631421587568833
aF4.621507698760402
aF4.611698876722584
aF4.601992718340694
aF4.59238689373538
aF4.582879144143596
aF4.573467279848795
aF4.564149178160247
aF4.554922781440585
aF4.545786095181145
aF4.53673718612448
aF4.527774180433213
aF4.518895261904784
aF4.510098670231313
aF4.501382699303762
aF4.492745695559961
aF4.48418605637542
aF4.475702228496569
aF4.467292706515323
aF4.458956031384479
aF4.450690788973104
aF4.442495608661084
aF4.434369161972265
aF4.426310161245081
aF4.418317358340413
aF4.410389543385326
aF4.402525543552444
aF4.39472422187384
aF4.3869844760889105
aF4.379305237525328
aF4.3716854700124586
aF4.364124168826359
aF4.356620359665783
aF4.349173097658359
aF4.341781466396169
aF4.334444577000231
aF4.3271615672129435
aF4.319931600517936
aF4.312753865286607
aF4.305627573950638
aF4.298551962199899
aF4.291526288205069
aF4.284549831864179
aF4.277621894072766
aF4.270741796016583
aF4.2639088784867125
aF4.257122501216097
aF4.250382042237222
aF4.243686897259994
aF4.237036479069712
aF4.230430216944139
aF4.223867556089499
aF4.217347957094464
aF4.210870895402106
aF4.204435860798853
aF4.19804235692024
aF4.191689900772774
aF4.185378022271669
aF4.1791062637937095
aF4.172874179745024
aF4.166681336143229
aF4.160527310213462
aF4.154411689998007
aF4.148334073978962
aF4.142294070713736
aF4.1362912984827345
aF4.130325384949103
aF4.124395966829943
aF4.118502689578928
aF4.112645207079547
aF4.106823181349047
aF4.101036282252554
aF4.095284187226995
aF4.089566581014659
aF4.083883155405927
aF4.078233608991081
aF4.072617646920676
aF4.0670349806743955
aF4.0614853278379
aF4.05596841188773
aF4.050483961983563
aF4.045031712768087
aF4.039611404173749
aF4.034222781236603
aF4.028865593916544
aF4.023539596924261
aF4.018244549554203
aF4.01298021552358
aF4.007746362817284
aF4.0025427635383135
aF3.99736919376365
aF3.992225433405367
aF3.9871112660768686
aF3.982026478963927
aF3.9769708627004805
aF3.971944211249013
aF3.966946321785358
aF3.9619769945876655
aF3.957036032929594
aF3.9521232429773963
aF3.9472384336908886
aF3.9423814167280273
aF3.937552006353152
aF3.9327500193486835
aF3.927975274929968
aF3.9232275946636053
aF3.918506802388646
aF3.9138127241408567
aF3.9091451880798895
aF3.9045040244192015
aF3.899889065358649
aF3.8953001450196907
aF3.8907370993830397
aF3.8861997662287866
aF3.8816879850788197
aF3.877201597141364
aF3.872740445257916
aF3.868304373851988
aF3.8638932288800594
aF3.8595068577843463
aF3.8551451094474625
aF3.8508078341488745
aF3.8464948835230643
aF3.84220611051939
aF3.8379413693635036
aF3.833700515520368
aF3.829483405658685
aF3.8252898976168193
aF3.821119850370069
aF3.816973123999292
aF3.8128495796607473
aF3.808749079557251
aF3.8046714869104634
aF3.800616665934244
aF3.7965844818093433
aF3.7925748006588607
aF3.7885874895248643
aF3.7846224163460396
aF3.780679449936095
aF3.7767584599633066
aF3.7728593169307145
aF3.7689818921573024
aF3.765126057759865
aF3.7612916866357997
aF3.7574786524464785
aa(lp9
F219.35203441497094
aF207.73137371580654
aF195.4146149101308
aF183.79571513996348
aF172.95304006347553
aF162.7957393496497
aF153.22820205674077
aF144.17301695913457
aF135.57296900107204
aF127.38931674816503
aF119.59834797239279
aF112.18651035435123
aF105.14507739765675
aF98.46586084602873
aF92.1390143509029
aF86.1528402990211
aF80.49470570646288
aF75.1521456005612
aF70.11364971866892
aF65.3690177378014
aF60.90935509292624
aF56.726822053881186
aF52.814237197845685
aF49.16462122325662
aF45.770756256284834
aF42.62482255077532
aF39.71815388492237
aF37.04112721620672
aF34.583177959097526
aF32.33291560860664
aF30.278307363269107
aF28.406898078956935
aF26.706039916042755
aF25.163111559520047
aF23.76571330412728
aF22.501829980614893
aF21.3599584415987
aF20.329200011371746
aF19.399320874755986
aF18.560784881953406
aF17.804763844473417
aF17.12313033186681
aF16.508437501487805
aF15.953889816447388
aF15.453307782287837
aF15.00108915280645
aF14.59216846501406
aF14.22197627620552
aF13.886399088412059
aF13.58174064457305
aF13.304685051518476
aF13.05226201275599
aF12.821814326485024
aF12.610967710869796
aF12.417602951213194
aF12.239830315943808
aF12.07596615541764
aF11.924511575750937
aF11.784133066454725
aF11.653644953403779
aF11.531993546034409
aF11.418242848393525
aF11.311561706812071
aF11.21121227183124
aF11.116539658013805
aF11.02696269200304
aF10.941965646326809
aF10.861090863736555
aF10.783932184140312
aF10.710129093299432
aF10.639361519311874
aF10.571345209435448
aF10.505827625968779
aF10.442584305676219
aF10.381415632610405
aF10.32214397914473
aF10.264611174590987
aF10.208676264952924
aF10.15421353117563
aF10.101110736710654
aF10.049267578351026
aF9.998594317120945
aF9.9490105685542
aF9.900444233987006
aF9.85283055654524
aF9.806111287344796
aF9.760233949067548
aF9.715151185539726
aF9.67082018724636
aF9.62720218387566
aF9.584261996019954
aF9.541967639074947
aF9.500289973192066
aF9.459202393857277
aF9.418680558307909
aF9.378702143561183
aF9.339246632327507
aF9.300295123521199
aF9.26183016447009
aF9.223835602268771
aF9.18629645202301
aF9.149198780000022
aF9.112529599934387
aF9.076276780948044
aF9.040428965724553
aF9.004975497740176
aF8.969906356495647
aF8.935212099818584
aF8.900883812415458
aF8.866913059950837
aF8.833291848015662
aF8.800012585422774
aF8.767068051333476
aF8.73445136577832
aF8.702155963185575
aF8.670175568577575
aF8.638504176133967
aF8.607136029856637
aF8.576065606102294
aF8.545287597775335
aF8.514796899998494
aF8.484588597099568
aF8.454657950771251
aF8.425000389277614
aF8.395611497595837
aF8.366487008393515
aF8.337622793754695
aF8.309014857576075
aF8.280659328565484
aF8.25255245378064
aF8.224690592654932
aF8.197070211461343
aF8.16968787817222
aF8.142540257676899
aF8.115624107323088
aF8.088936272752289
aF8.062473684002198
aF8.036233351852264
aF8.010212364391085
aF7.984407883786466
aF7.958817143241437
aF7.933437444120308
aF7.908266153231984
aF7.883300700257313
aF7.858538575310316
aF7.833977326622723
aF7.809614558343266
aF7.785447928443499
aF7.761475146722962
aF7.737693972907025
aF7.714102214831508
aF7.690697726708604
aF7.667478407469137
aF7.644442199176847
aF7.62158708551033
aF7.5989110903090875
aF7.576412276180093
aF7.554088743161917
aF7.531938627443164
aF7.509960100132879
aF7.488151366080185
aF7.4665106627409985
aF7.44503625908957
aF7.423726454572848
aF7.4025795781059385
aF7.38159398710675
aF7.360768066568275
aF7.340100228166852
aF7.3195889094052
aF7.299232572788489
aF7.279029705032588
aF7.2589788163027595
aF7.239078439482105
aF7.21932712946832
aF7.199723462497803
aF7.1802660354962065
aF7.160953465454233
aF7.141784388827954
aF7.1227574609626405
aF7.103871355539359
aF7.085124764043273
aF7.066516395253187
aF7.048044974751295
aF7.029709244452567
aF7.011507962152884
aF6.993439901095424
aF6.975503849554559
aF6.9576986104365055
aF6.940023000896344
aF6.9224758519705105
aF6.905056008224484
aF6.887762327414836
aF6.870593680165268
aF6.853548949656014
aF6.836627031326132
aF6.819826832588216
aF6.803147272554956
aF6.786587281777085
aF6.7701458019924585
aF6.7538217858855125
aF6.737614196856875
aF6.7215220088026735
aF6.705544205903227
aF6.689679782420464
aF6.673927742504038
aF6.658287100005536
aF6.642756878300512
aF6.627336110118015
aF6.612023837377316
aF6.596819111031337
aF6.581720990916823
aF6.566728545610507
aF6.551840852291457
aF6.53705699660895
aF6.522376072555803
aF6.507797182346935
aF6.493319436302734
aF6.478941952737131
aF6.464663857850219
aF6.450484285625002
aF6.43640237772819
aF6.422417283414852
aF6.408528159436656
aF6.394734169953614
aF6.381034486449028
aF6.367428287647537
aF6.353914759436189
aF6.340493094788157
aF6.327162493689142
aF6.313922163066316
aF6.300771316719523
aF6.287709175254701
aF6.274734966019523
aF6.261847923040849
aF6.249047286964066
aF6.236332304994329
aF6.22370223083929
aF6.211156324653411
aF6.1986938529838085
aF6.186314088717403
aF6.1740163110293675
aF6.161799805332792
aF6.1496638632295175
aF6.137607782461963
aF6.125630866865988
aF6.113732426324686
aF6.10191177672302
aF6.090168239903365
aF6.078501143621649
aF6.066909821504343
aF6.0553936130060295
aF6.043951863367688
aF6.032583923575429
aF6.021289150319816
aF6.0100669059557275
aF5.9989165584626365
aF5.987837481405277
aF5.976829053894866
aF5.96589066055048
aF5.955021691460946
aF5.944221542146979
aF5.933489613523628
aF5.92282531186301
aF5.912228048757244
aF5.901697241081746
aF5.89123231095857
aF5.880832685720099
aF5.870497797872881
aF5.860227085061573
aF5.850019990033145
aF5.839875960601242
aF5.829794449610539
aF5.819774914901434
aF5.809816819274721
aF5.799919630456421
aF5.790082821062772
aF5.78030586856525
aF5.770588255255718
aF5.760929468211701
aF5.751328999261696
aF5.74178634495061
aF5.73230100650531
aF5.722872489800135
aF5.713500305322639
aF5.704183968139306
aF5.694922997861392
aF5.685716918610851
aF5.6765652589862565
aF5.667467552028888
aF5.658423335188918
aF5.6494321502915055
aF5.640493543503176
aF5.631607065298141
aF5.622772270424729
aF5.613988717871943
aF5.60525597083599
aF5.596573596687051
aF5.5879411669359715
aF5.579358257201167
aF5.570824447175484
aa(lp10
F205.99888197063223
aF183.64156315899928
aF160.77343159580383
aF140.61119785748377
aF123.18064980379982
aF108.07629999232489
aF94.91967245526072
aF83.41273770626337
aF73.32637468513035
aF64.48262784740693
aF56.73966976644545
aF49.98021181121675
aF44.10304924039998
aF39.01733755956186
aF34.639133547693255
aF30.889662093051292
aF27.694752296902553
aF24.984943496930185
aF22.695871945166356
aF20.768675703714916
aF19.15026980556508
aF17.793431108852175
aF16.65668996177929
aF15.704058128396204
aF14.904636172776573
aF14.232145228400402
aF13.664423051791887
aF13.182916213230454
aF12.772191609169377
aF12.419482551721478
aF12.114278133776228
aF11.847959551724735
aF11.613483493019835
aF11.40511033796275
aF11.2181735215034
aF11.048885701340046
aF10.89417716953725
aF10.751562056474448
aF10.619028180608915
aF10.494946803971535
aF10.377998999187454
aF10.267115778811974
aF10.161429557584606
aF10.060234899691784
aF9.962956840664596
aF9.869125366298412
aF9.778354881038506
aF9.690327709288564
aF9.604780849436594
aF9.521495346588466
aF9.44028777041509
aF9.361003383162203
aF9.28351066331537
aF9.207696915760256
aF9.133464752198032
aF9.060729268310629
aF8.98941577860529
aF8.91945799756074
aF8.85079657793244
aF8.78337793490371
aF8.71715329905206
aF8.652077952529268
aF8.588110611995315
aF8.525212929153192
aF8.463349085570712
aF8.402485463140568
aF8.342590375255563
aF8.283633846753679
aF8.225587433065904
aF8.168424070900334
aF8.11211795431602
aF8.056644431255632
aF8.001979916577923
aF7.948101818410496
aF7.894988475266716
aF7.842619101871154
aF7.7909737420391405
aF7.740033227278597
aF7.6897791400411215
aF7.640193780757988
aF7.59126013796414
aF7.542961860949286
aF7.49528323448273
aF7.448209155248836
aF7.40172510969894
aF7.3558171530845335
aF7.310471889482455
aF7.265676452660251
aF7.221418487661012
aF7.1776861330109885
aF7.134468003473461
aF7.091753173288564
aF7.049531159851778
aF7.007791907793966
aF6.966525773434822
aF6.925723509588038
aF6.885376250701815
aF6.845475498322994
aF6.806013106876302
aF6.766981269752736
aF6.728372505703421
aF6.6901796455365465
aF6.6523958191165855
aF6.615014442665354
aF6.578029206365255
aF6.541434062265562
aF6.505223212492549
aF6.469391097764397
aF6.43393238621181
aF6.398841962504983
aF6.364114917287698
aF6.329746536918446
aF6.295732293518894
aF6.262067835329057
aF6.228748977368632
aF6.195771692403396
aF6.163132102215092
aF6.13082646917308
aF6.098851188105853
aF6.067202778469305
aF6.035877876809342
aF6.004873229515667
aF5.974185685862779
aF5.943812191334855
aF5.913749781230024
aF5.883995574539864
aF5.854546768099363
aF5.825400631002372
aF5.79655449927776
aF5.768005770820503
aF5.739751900572499
aF5.711790395947425
aF5.684118812493642
aF5.656734749789396
aF5.629635847564024
aF5.602819782039142
aF5.576284262483631
aF5.550027027975743
aF5.5240458443664275
aF5.498338501437002
aF5.4729028102451505
aF5.4477366006524
aF5.422837719026983
aF5.398204026115434
aF5.373833395076579
aF5.349723709671643
aF5.325872862604077
aF5.302278754002854
aF5.278939290043276
aF5.255852381698814
aF5.233015943618388
aF5.2104278931229375
aF5.18808614931562
aF5.165988632299873
aF5.144133262499788
aF5.122517960077471
aF5.101140644441845
aF5.079999233844001
aF5.059091645053822
aF5.0384157931131845
aF5.017969591160659
aF4.997750950323492
aF4.977757779672191
aF4.957987986233325
aF4.9384394750564535
aF4.919110149331285
aF4.899997910550986
aF4.881100658717975
aF4.862416292588701
aF4.8439427099538985
aF4.825677807951116
aF4.8076194834062
aF4.789765633200993
aF4.7721141546642025
aF4.754662945982683
aF4.737409906630775
aF4.7203529378150115
aF4.703489942931961
aF4.686818828037016
aF4.67033750232207
aF4.6540438786
aF4.637935873794294
aF4.622011409432006
aF4.606268412138255
aF4.590704814131241
aF4.57531855371565
aF4.560107575773862
aF4.5450698322531835
aF4.530203282648338
aF4.515505894477872
aF4.500975643753923
aF4.486610515443947
aF4.4724085039241075
aF4.458367613423281
aF4.444485858457077
aF4.430761264251454
aF4.417191867155136
aF4.403775715040532
aF4.3905108676928
aF4.37739539718651
aF4.364427388249712
aF4.351604938615179
aF4.338926159358547
aF4.326389175223213
aF4.313992124931878
aF4.301733161484583
aF4.289610452443231
aF4.277622180202549
aF4.265766542247567
aF4.254041751397505
aF4.24244603603621
aF4.230977640329351
aF4.2196348244281925
aF4.208415864660339
aF4.197319053707534
aF4.186342700770517
aF4.175485131721387
aF4.164744689243434
aF4.15411973295884
aF4.143608639544227
aF4.133209802834612
aF4.1229216339156745
aF4.112742561204852
aF4.102671030521303
aF4.092705505145197
aF4.082844465866487
aF4.073086411023368
aF4.06342985653089
aF4.053873335899856
aF4.044415400246301
aF4.03505461829195
aF4.02578957635564
aF4.0166188783364865
aF4.0075411456884975
aF3.998555017387411
aF3.9896591498897043
aF3.9808522170842413
aF3.972132910236684
aF3.9634999379271565
aF3.95495202598117
aF3.9464879173942573
aF3.938106372250567
aF3.9298061676355722
aF3.9215860975432184
aF3.9134449727778646
aF3.905381620850981
aF3.8973948858732053
aF3.8894836284417122
aF3.8816467255232636
aF3.873883070333129
aF3.8661915722101146
aF3.858571156487964
aF3.8510207643632
aF3.843539352759778
aF3.8361258941907086
aF3.8287793766167706
aF3.821498803302604
aF3.8142831926703042
aF3.8071315781507957
aF3.8000430080330023
aF3.7930165453111586
aF3.786051267530282
aF3.7791462666301205
aF3.7723006487876227
aF3.7655135342580404
aF3.758784057214975
aF3.7521113655893865
aF3.745494620907712
aF3.738932998129291
aF3.7324256854831153
aF3.7259718843041805
aF3.719570808869399
aF3.7132216862332896
aF3.706923756063567
aF3.70067627047661
aF3.694478493873066
aF3.6883297027735815
aF3.682229185654875
aF3.6761762427859597
aF3.6701701860650777
aF3.6642103388568943
aF3.658296035830435
aF3.652426622797649
aF3.646601456552659
aF3.640819904711939
aF3.635081345555212
aF3.6293851678674134
aF3.6237307707815485
aF3.6181175636226253
aF3.612544965752684
aF3.607012406416959
aF3.6015193245912567
aF3.596065168830523
aF3.590649397118681
aF3.5852714767198575
aF3.5799308840308073
aF3.5746271044348714
aF3.5693596321572274
aF3.5641279701216404
aF3.558931629808661
aa(lp11
F226.67300803736225
aF181.80316923121097
aF139.146649972464
aF106.55550512893414
aF82.79389037629358
aF65.52990807047571
aF52.88407911924189
aF43.524170901786896
aF36.52660983221043
aF31.24710658981462
aF27.229791510303055
aF24.14713606577263
aF21.760602562601665
aF19.89464456320775
aF18.419189731974527
aF17.237518144409254
aF16.277629231468612
aF15.485937110377684
aF14.822585114008966
aF14.257932302208458
aF13.769913988078487
aF13.34206482049261
aF12.96204639559677
aF12.620557699188158
aF12.310533737787932
aF12.026559035331736
aF11.76443980413007
aF11.520892306745154
aF11.293315723503964
aF11.079626183566774
aF10.878134942127488
aF10.687458399387427
aF10.506451118270103
aF10.334155509830167
aF10.169763661450531
aF10.012588072661032
aF9.862038980167796
aF9.717606603707958
aF9.578847105016193
aF9.44537137913127
aF9.316836030038838
aF9.192936049176925
aF9.073398835239303
aF8.9579792807248
aF8.846455714397713
aF8.73862653594624
aF8.634307414353477
aF8.533328948124144
aF8.435534705865567
aF8.340779581460913
aF8.248928410369812
aF8.15985480330311
aF8.073440161259079
aF7.989572842135201
aF7.908147454176848
aF7.829064255646817
aF7.752228643487126
aF7.677550716544736
aF7.604944901258206
aF7.534329629641678
aF7.46562706102658
aF7.398762840383665
aF7.333665887195449
aF7.270268209816309
aF7.208504741073983
aF7.14831319155651
aF7.089633917613012
aF7.032409801589755
aF6.976586142241195
aF6.922110553608071
aF6.8689328709531
aF6.8170050625948315
aF6.766281146692508
aF6.7167171122108495
aF6.6682708434427465
aF6.620902047590517
aF6.574572185009574
aF6.529244401802614
aF6.4848834645220155
aF6.441455696795071
aF6.398928917732221
aF6.357272382015252
aF6.316456721591855
aF6.2764538889250385
aF6.2372371017636485
aF6.198780789413035
aF6.161060540494296
aF6.124053052186688
aF6.087736080951969
aF6.052088394741562
aF6.017089726687709
aF5.982720730279362
aF5.948962936022615
aF5.915798709582079
aF5.883211211398708
aF5.851184357775715
aF5.819702783421367
aF5.7887518054350675
aF5.758317388719483
aF5.728386112799112
aF5.698945140022822
aF5.669982185125264
aF5.6414854861202155
aF5.6134437764961485
aF5.585846258683437
aF5.558682578759921
aF5.531942802361323
aF5.505617391761028
aF5.479697184083374
aF5.454173370613647
aF5.429037477167688
aF5.404281345483578
aF5.379897115597907
aF5.355877209168977
aF5.332214313709726
aF5.308901367693232
aF5.2859315464943935
aF5.2632982491314015
aF5.240995085772122
aF5.219015865970047
aF5.197354587596554
aF5.176005426435832
aF5.154962726410679
aF5.13422099040762
aF5.113774871671265
aF5.093619165738438
aF5.0737488028836175
aF5.054158841048729
aF5.034844459230565
aF5.015800951300696
aF4.997023720233538
aF4.978508272719294
aF4.960250214139388
aF4.942245243883005
aF4.924489150984386
aF4.906977810061283
aF4.88970717753625
aF4.872673288122736
aF4.8558722515593935
aF4.839300249576596
aF4.8229535330798825
aF4.806828419536005
aF4.79092129054797
aF4.775228589606084
aF4.759746820002897
aF4.744472542900374
aF4.729402375538617
aF4.7145329895757735
aF4.699861109549282
aF4.685383511449773
aF4.671097021398761
aF4.65699851442215
aF4.643084913312155
aF4.629353187570376
aF4.615800352425666
aF4.60242346792039
aF4.589219638059335
aF4.5761860100160705
aF4.56331977339147
aF4.5506181595199
aF4.538078440818583
aF4.525697930176324
aF4.513473980377476
aF4.501403983558088
aF4.4894853706907005
aF4.477715611095021
aF4.466092211971537
aF4.454612717955835
aF4.443274710691016
aF4.432075808416252
aF4.421013665569467
aF4.410085972402446
aF4.39929045460663
aF4.388624872948219
aF4.378087022911171
aF4.367674734347042
aF4.357385871130258
aF4.347218330818265
aF4.337170044315358
aF4.3272389755394585
aF4.317423121091337
aF4.3077205099253755
aF4.298129203021705
aF4.288647293058831
aF4.279272904086689
aF4.2700041911996856
aF4.2608393402093165
aF4.251776567316358
aF4.242814118782192
aF4.233950270599307
aF4.225183328160834
aF4.216511625928911
aF4.207933527101986
aF4.1994474232809855
aF4.1910517341343345
aF4.182744907061822
aF4.17452541685751
aF4.166391765371633
aF4.158342481171522
aF4.150376119201835
aF4.142491260443977
aF4.134686511575037
aF4.126960504626214
aF4.119311896640995
aF4.111739369333002
aF4.104241628744024
aF4.096817404901969
aF4.08946545147912
aF4.082184545450964
aF4.0749734867552405
aF4.067831097952137
aF4.060756223884951
aF4.053747731342047
aF4.046804508719805
aF4.039925465686929
aF4.033109532850259
aF4.026355661422064
aF4.019662822889127
aF4.013030008683648
aF4.006456229856095
aF3.9999405167502786
aF3.993481918680483
aF3.987079503610997
aF3.980732357838118
aF3.974439585674637
aF3.9682003091370395
aF3.9620136676353135
aF3.955878817665748
aF3.9497949325064603
aF3.9437612019160806
aF3.937776831835392
aF3.9318410440920504
aF3.9259530761087067
aF3.9201121806141326
aF3.9143176253578087
aF3.908568692827829
aF3.9028646799722333
aF3.89720489792369
aF3.8915886717278507
aF3.886015340075019
aF3.880484255035437
aF3.8749947817982524
aF3.8695462984139266
aF3.8641381955402747
aF3.8587698761922784
aF3.853440755495303
aF3.8481502604421602
aF3.8428978296537
aF3.837682913143112
aF3.832504972083831
aF3.827363478581145
aF3.8222579154473304
aF3.8171877759805795
aF3.8121525637474023
aF3.80715179236868
aF3.802184985309318
aF3.7972516756714505
aF3.7923514059911576
aF3.787483728038832
aF3.782648202622833
aF3.7778443993968693
aF3.7730718966705736
aF3.768330281223732
aF3.7636191481237224
aF3.758938100546437
aF3.7542867496003884
aF3.749664714154306
aF3.7450716206678214
aF3.7405071030253967
aF3.7359708023735543
aF3.7314623669611384
aF3.7269814519827626
aF3.722527719425208
aF3.7181008379170772
aF3.7137004825811877
aF3.709326334890135
aF3.704978082524602
aF3.7006554192346894
aF3.696358044703987
aF3.692085664416402
aF3.6878379895259195
aF3.6836147367287966
aF3.679415628138746
aF3.6752403911644196
aF3.671088758389752
aF3.666960467456703
aF3.6628552609504403
aF3.6587728862872306
aF3.6547130956044867
aF3.650675645653305
aF3.6466602976933835
aF3.6426668173901398
aF3.638694974714192
aF3.6347445438429324
aF3.6308153030643857
aF3.6269070346831684
aF3.6230195249284916
aF3.6191525638643407
aF3.615305945301547
aF3.611479466711954
aa(lp12
F211.71105632198334
aF140.47766510417281
aF83.20950188626264
aF52.66591485328895
aF38.804565776454176
aF32.33711903557687
aF28.585642028110424
aF25.809476184109588
aF23.495939871270096
aF21.51184232978009
aF19.808128868146206
aF18.347491610955103
aF17.0949366857968
aF16.018984367155237
aF15.09243506514422
aF14.292143821250168
aF13.598488785439908
aF12.994856340315705
aF12.467203587214078
aF12.003685542134665
aF11.594331543107266
aF11.230762949355316
aF10.905948112538649
aF10.613991394965426
aF10.349952818540263
aF10.109694761675136
aF9.889752192931654
aF9.687223177567109
aF9.499676722559906
aF9.325075374582271
aF9.161710321534349
aF9.008147057508525
aF8.863179948411034
aF8.725794280304436
aF8.595134586271447
aF8.47047823263532
aF8.351213404496793
aF8.236820766643811
aF8.126858191770966
aF8.020948046230567
aF7.918766606632099
aF7.820035250661122
aF7.724513124406808
aF7.631991037935448
aF7.542286382273803
aF7.4552388956118625
aF7.370707135476712
aF7.288565537768068
aF7.208701963664227
aF7.13101565215543
aF7.055415509893409
aF6.981818681627727
aF6.910149354121288
aF6.840337754427616
aF6.772319310044884
aF6.706033943965133
aF6.6414254822037275
aF6.5784411551814745
aF6.517031177474303
aF6.4571483930517575
aF6.398747975287506
aF6.341787172820021
aF6.286225093830098
aF6.23202252253854
aF6.179141762754224
aF6.127546504155886
aF6.077201707700543
aF6.02807350714107
aF5.980129124127466
aF5.933336794774609
aF5.887665705921057
aF5.843085939587577
aF5.799568424381936
aF5.757084892795014
aF5.71560784349972
aF5.675110507902685
aF5.635566820316385
aF5.596951391216457
aF5.559239483131594
aF5.522406988782926
aF5.4864304111473645
aF5.451286845169608
aF5.416953960888199
aF5.383409987776554
aF5.350633700129495
aF5.318604403351277
aF5.287301921022062
aF5.256706582638411
aF5.226799211938571
aF5.197561115736559
aF5.168974073200414
aF5.141020325519434
aF5.11368256591339
aF5.086943929943934
aF5.060787986094166
aF5.035198726587576
aF5.010160558422053
aF4.985658294598177
aF4.9616771455246065
aF4.938202710585843
aF4.915220969860009
aF4.892718275976764
aF4.870681346106444
aF4.849097254073952
aF4.827953422591139
aF4.807237615603512
aF4.786937930747254
aF4.767042791913759
aF4.747540941919274
aF4.728421435278066
aF4.709673631077626
aF4.691287185955215
aF4.673252047174956
aF4.655558445805267
aF4.6381968899963475
aF4.621158158357901
aF4.604433293436925
aF4.588013595296182
aF4.57189061519298
aF4.55605614935937
aF4.540502232883191
aF4.525221133690911
aF4.510205346632132
aF4.49544758766612
aF4.4809407881506065
aF4.466678089232829
aF4.452652836343067
aF4.438858573790389
aF4.42528903946097
aF4.411938159618474
aF4.398800043806385
aF4.385868979852217
aF4.373139428972857
aF4.360606020981039
aF4.34826354959215
aF4.336106967830822
aF4.324131383536931
aF4.312332054969839
aF4.300704386510631
aF4.289243924461035
aF4.277946352938447
aF4.266807489865996
aF4.255823283056609
aF4.244989806390058
aF4.234303256081954
aF4.22375994704339
aF4.2133563093302175
aF4.203088884680531
aF4.192954323139326
aF4.182949379768868
aF4.173070911443497
aF4.1633158737276155
aF4.153681317835246
aF4.1441643876702035
aF4.134762316944965
aF4.12547242637718
aF4.116292120962326
aF4.107218887320935
aF4.098250291119114
aF4.089383974560784
aF4.080617653950294
aF4.071949117323858
aF4.063376222148449
aF4.054896893086666
aF4.046509119826082
aF4.038210954971817
aF4.030000512000547
aF4.021875963275192
aF4.013835538117966
aF4.0058775209412305
aF3.9980002494344045
aF3.9902021128053904
aF3.9824815500756587
aF3.9748370484271844
aF3.9672671416001877
aF3.9597704083402734
aF3.9523454708938517
aF3.9449909935502854
aF3.93770568122984
aF3.9304882781160355
aF3.9233375663312433
aF3.916252364654403
aF3.9092315272795597
aF3.902273942614399
aF3.895378532117186
aF3.8885442491715714
aF3.8817700779977313
aF3.8750550325990556
aF3.8683981557433618
aF3.861798517977403
aF3.8552552166740974
aF3.8487673751110343
aF3.84233414157972
aF3.835954688524511
aF3.829628211710262
aF3.8233539294179195
aF3.8171310816672452
aF3.8109589294656554
aF3.8048367540826593
aF3.7987638563488306
aF3.7927395559786663
aF3.786763190916683
aF3.7808341167058335
aF3.7749517058776516
aF3.7691153473634365
aF3.763324445925746
aF3.7575784216096775
aF3.7518767092130734
aF3.746218757775292
aF3.7406040300838255
aF3.73503200219809
aF3.729502162990005
aF3.7240140137007276
aF3.718567067513034
aF3.7131608491386903
aF3.7077948944205557
aF3.702468749948803
aF3.697181972690726
aF3.691934129633734
aF3.6867247974411637
aF3.6815535621203894
aF3.676420018702791
aF3.6713237709352398
aF3.666264430982759
aF3.6612416191417423
aF3.65625496356375
aF3.6513040999890976
aF3.646388671490263
aF3.6415083282245315
aF3.636662727195677
aF3.6318515320242892
aF3.6270744127265284
aF3.622331045500949
aF3.617621112523159
aF3.612944301748004
aF3.608300306718966
aF3.6036888263846745
aF3.599109564922076
aF3.5945622315662344
aF3.5900465404463415
aF3.5855622104278386
aF3.5811089649603405
aF3.576686531931353
aF3.5722946435251757
aF3.5679330360873043
aF3.5636014499937083
aF3.5592996295251256
aF3.5550273227459024
aF3.5507842813875103
aF3.546570260736338
aF3.5423850195256876
aF3.5382283198318594
aF3.53409992697415
aF3.5299996094185118
aF3.525927138685001
aF3.521882289258536
aF3.517864838503201
aF3.513874566579563
aF3.509911256365318
aF3.5059746933788762
aF3.502064665705698
aF3.4981809639276586
aF3.494323381054896
aF3.490491712460298
aF3.4866857558165028
aF3.482905311035275
aF3.479150180209128
aF3.4754201675552614
aF3.4717150793615437
aF3.468034723934538
aF3.4643789115496157
aF3.4607474544028194
aF3.4571401665646593
aF3.4535568639355865
aF3.449997364203221
aF3.446461486801201
aF3.4429490528695
aF3.439459885216397
aF3.435993808281729
aF3.432550648101711
aF3.4291302322749053
aF3.425732389929628
aF3.4223569516924957
aF3.4190037496581622
aF3.4156726173602943
aF3.4123633897435104
aF3.409075903136434
aF3.4058099952257757
aF3.402565505031373
aF3.3993422728821208
aF3.396140140392862
aF3.392958950442125
aF3.3897985471505954
aF3.386658775860583
aF3.3835394831160097
aF3.3804405166433416
aF3.377361725333055
aF3.374302959221895
aF3.37126406947573
aF3.3682449083730273
aa.