(lp0
(lp1
F213.69234541537176
aF327.99791704801083
aF2586.427583854588
aF131.21528766351764
aF3437.6710728355342
aF3763.6219677523213
aF5448.775804627049
aF379.68028140527133
aF36015.47028598152
aF58606.53423857687
aF70466.2717716059
aF719230.1289010607
aF78007.78363447495
aF1144905.8965033256
aF2619363.0330609777
aF46965.01002298258
aF7757834.330595513
aF8817119.134768642
aF5725870.120112186
aF52993248.82916796
aF21033772.749088705
aF55960579.506551385
aF239484982.56577915
aF22323773.529224683
aF505457167.93054676
aF1074203175.1858623
aF42863625.80080103
aF4041454357.1492505
aF4003324547.828455
aF2456349393.7303166
aF30134874680.085514
aF9276966646.874
aF62215649162.500114
aF210052501670.60336
aF7963929959.711725
aF792619632121.1196
aF997013739629.536
aF438830440439.2788
aF6978641512170.17
aF2811501757921.4243
aF31624145341810.07
aF74297024424955.75
aF68996198673131.05
aF617987724866588.8
aF794629384487662.6
aF603515567204366.4
aF2036047961965547.0
aF1546063596412691.8
aF5.5742708916271654e+17
aF7.864749306354184e+17
aF1.303578353219235e+18
aF1.119816911045398e+19
aF1.330378271558626e+19
aF1.3565647896815968e+19
aF8.82557794201304e+19
aF1.0377870852923834e+20
aF1.051305486706293e+20
aF1.067857436609046e+20
aF2.0542598051828785e+22
aF7.874055643004832e+21
aF7.752502761596501e+21
aF1.182592971836497e+22
aF1.270589893220634e+22
aF1.2753968131997092e+22
aF1.2690871079501245e+22
aF7.436039757549704e+22
aF8.692847874479067e+22
aF8.85306484134867e+22
aF7.917040400651364e+24
aF9.591473327643761e+24
aF5.907652667865551e+29
aF7.14823686532355e+29
aF7.25520579919783e+29
aF7.240304599831726e+29
aF7.212780390662257e+29
aF7.187227850664323e+29
aF7.159144850728132e+29
aF7.130542152530206e+29
aF7.102690030851446e+29
aF7.074576569778165e+29
aF7.054076875581148e+29
aF7.027665609779654e+29
aF6.99964731519638e+29
aF6.972929205576181e+29
aF1.6744612560915303e+34
aF2.0260840145302324e+34
aF2.0564068410982812e+34
aF5.582396007162859e+34
aF6.315233925847854e+34
aF6.370935339841528e+34
aF6.353708202882604e+34
aF6.329106253898278e+34
aF6.303852545134651e+34
aF6.282074665241052e+34
aF6.257630579092219e+34
aF6.232655695356595e+34
aF6.20768791275024e+34
aF6.182876943359837e+34
aF6.1581325205227825e+34
aF6.133423627828242e+34
aF6.109261845154343e+34
aF1.522566444696605e+45
aF1.8423053980698752e+45
aF1.8698748740986218e+45
aF1.8659623679930073e+45
aF1.8588536024132026e+45
aF1.851446142020997e+45
aF1.851244603005807e+45
aF1.8453737996943826e+45
aF1.838148763868588e+45
aF1.8308041711833957e+45
aF1.8234775285741036e+45
aF1.816175547346897e+45
aF1.8089020196457217e+45
aF1.801657538067446e+45
aF1.7944420613846526e+45
aF1.7872554813315215e+45
aF1.780102959579425e+45
aF2.9857193860958316e+49
aF3.612673625399088e+49
aF3.666731883494355e+49
aF3.659059233045775e+49
aF3.64511925523007e+49
aF3.6305935902963955e+49
aF3.6160607891953845e+49
aF3.601579542049447e+49
aF3.587155614173099e+49
aF3.5727893839595704e+49
aF3.5584806821740426e+49
aF3.54422928477244e+49
aF3.530034962961621e+49
aF3.5158974879121805e+49
aF3.501816632636931e+49
aF3.4877921699363234e+49
aF3.473823872994716e+49
aF3.459911521660248e+49
aF3.4460548841163197e+49
aF3.432253742334152e+49
aF3.4185078934474136e+49
aF3.4048170552341325e+49
aF3.114746804872304e+70
aF3.76884363389628e+70
aF3.825243103951959e+70
aF3.817239206802334e+70
aF3.802696652750385e+70
aF3.787543052276662e+70
aF3.7723820030427763e+70
aF3.7572747360102173e+70
aF3.742227266102831e+70
aF3.727239988085147e+70
aF3.712312725460338e+70
aF3.6974452444449615e+70
aF3.682637306288127e+70
aF3.6678886725941144e+70
aF3.6531991058607796e+70
aF3.638568369530922e+70
aF3.6239962279941006e+70
aF3.609482446583405e+70
aF3.5950267915717413e+70
aF3.5806290301680696e+70
aF3.566288930513658e+70
aF3.695757513176905e+73
aF4.471106444161082e+73
aF4.537947926907826e+73
aF4.5284460344156163e+73
aF4.5111933072558845e+73
aF4.4932163050210794e+73
aF4.4752305291323976e+73
aF4.4573085622405055e+73
aF4.439457556668404e+73
aF4.421677939895221e+73
aF4.403969515929699e+73
aF1.8679938949598329e+87
aF2.2602726129013876e+87
aF2.2940968266759594e+87
aF2.289296683112749e+87
aF2.2805751388082263e+87
aF2.2714871342497208e+87
aF2.2623946624804787e+87
aF2.2533344452830497e+87
aF2.244310089961966e+87
aF2.235321833267662e+87
aF2.2263695693504412e+87
aF2.2174531580043513e+87
aF2.2085724560443318e+87
aF3.159914880165673e+87
aF3.3527445561276747e+87
aF3.361356473255863e+87
aF3.350149811370879e+87
aF3.3369624683394744e+87
aF3.3236216170446906e+87
aF3.310313189799075e+87
aF3.297055923307941e+87
aF3.28385153330578e+87
aF3.270700003547117e+87
aF3.257601142235346e+87
aF3.2445547404642595e+87
aF3.2315605883443504e+87
aF3.218618476641428e+87
aF3.2057281969404045e+87
aF3.192889541658955e+87
aF3.180102304045912e+87
aF3.1673662781781047e+87
aF3.1546812589570637e+87
aF3.1420470421057232e+87
aF3.129463424165126e+87
aF3.1169302024911505e+87
aF3.1044471752512495e+87
aF3.092014141421193e+87
aF3.079630900781838e+87
aF3.0672972539159007e+87
aF3.0550130022047434e+87
aF3.0427779478251826e+87
aF3.030591893746295e+87
aF3.018454643726252e+87
aF3.006366002309152e+87
aF2.9943257748218804e+87
aF2.98233376737097e+87
aF2.9703897868394777e+87
aF2.958493640883882e+87
aF2.946645137930973e+87
aF2.9348440871747774e+87
aF2.9230902985734845e+87
aF2.9113835828463822e+87
aF2.8997237514708105e+87
aF2.888110616679126e+87
aF2.8765439914556806e+87
aF2.8650236895338037e+87
aF2.853549525392807e+87
aF2.842121314254997e+87
aF2.830738872082697e+87
aF2.8194020155752858e+87
aF2.808110562166251e+87
aF2.796864330020226e+87
aF2.7856631380300915e+87
aF2.7745068058140447e+87
aF2.7633951537126955e+87
aF2.7523280027861725e+87
aF2.741305174811242e+87
aF2.730326492278441e+87
aF2.719391778389212e+87
aF2.708500857053063e+87
aF2.697653552884729e+87
aF2.6868496912013445e+87
aF2.6760890980196363e+87
aF2.6653716000531176e+87
aF2.6546970247092956e+87
aF2.644065200086901e+87
aF2.6334759549731085e+87
aF2.622929118840788e+87
aF2.6124245218457535e+87
aF2.6019619948240306e+87
aF2.5915413692891334e+87
aF2.5811624774293417e+87
aF2.570825152105021e+87
aF2.5605292268459078e+87
aF2.550274535848408e+87
aF2.540060913973062e+87
aF2.529888196741618e+87
aF2.5197562203345972e+87
aF2.5096648215890374e+87
aF2.4996138379942415e+87
aF2.4896031076918685e+87
aF2.479632469472161e+87
aF2.4697017627654175e+87
aF2.4598108276576473e+87
aF2.4499595048638344e+87
aF2.4401476357245508e+87
aF2.4303750622850276e+87
aF2.420641627101459e+87
aF2.4109471734346636e+87
aF2.401291545403996e+87
aF1.588492220182085e+138
aF1.9220755864203225e+138
aF1.9508387962892922e+138
aF1.9467568821425222e+138
aF1.9393403133233798e+138
aF1.9316121164716028e+138
aF1.9238801208228823e+138
aF1.9161755536023425e+138
aF1.9085014823656117e+138
aF1.9008581084389494e+138
aF1.8932453418105938e+138
aF1.8856630632531404e+138
aF1.878111151005831e+138
aF1.8705894834890417e+138
aF1.8630979395788623e+138
aF1.8556363986332983e+138
aF1.8482047404931907e+138
aF1.8408028454805748e+138
aF1.8334305943967817e+138
aF1.826087868520523e+138
aF1.8187745496059782e+138
aF1.8114905198808893e+138
aF1.8042356620446683e+138
aF1.797009859266504e+138
aF1.0668126931162574e+144
aF1.2908429756419016e+144
aF1.3101599695632961e+144
aF1.3074186015174514e+144
aa(lp2
F198.6340067199774
aF31.820349155584747
aF358.53365093816853
aF318.0878838892226
aF34.4679373831071
aF624.9285854290531
aF508.59501717324554
aF12.941437195418917
aF395.41006156953836
aF481.80471788113067
aF41.47037834909479
aF142.62935851800503
aF244.58715489157657
aF128.27189797517875
aF28.604039882253204
aF17.24903551581164
aF28.401715309896442
aF21.748209911908067
aF11.106886147057805
aF9.314606975567255
aF10.552691830952835
aF9.73329705553769
aF8.275747130694738
aF7.781182526358577
aF7.770389494105437
aF7.579870272478023
aF7.298436557110489
aF7.133849247032828
aF7.039054718015824
aF6.929896295006914
aF6.815670892020085
aF6.721844468802577
aF6.642268335221015
aF6.565321438468095
aF6.4913671928824925
aF6.423382822188454
aF6.360327248352508
aF6.300379309473858
aF6.243310723502309
aF6.189296165088237
aF6.138018723812801
aF6.089075515584207
aF6.042292241049792
aF5.997567015395655
aF5.9547467781704615
aF5.913677853078987
aF5.874246792227746
aF5.836358481748379
aF5.799918355623906
aF5.764838161903116
aF5.7310406714937425
aF5.698456049360017
aF5.667018872081753
aF5.6366684269071055
aF5.607348936531006
aF5.579008708988575
aF5.551599430296914
aF5.5250759466897925
aF5.499396067517421
aF5.474520248741799
aF5.450411321414382
aF5.427034308107308
aF5.40435625925738
aF5.382346088421112
aF5.360974427293437
aF5.340213504071799
aF5.320037033837023
aF5.30042011682125
aF5.281339146504859
aF5.262771727171441
aF5.244696598622257
aF5.227093566870514
aF5.209943440517129
aF5.193227972226028
aF5.176929804536272
aF5.161032419499624
aF5.145520091821938
aF5.130377845188985
aF5.11559141145957
aF5.101147192464046
aF5.087032224188705
aF5.07323414314561
aF5.059741154748368
aF5.046542003541518
aF5.033625945152213
aF5.020982719846118
aF5.00860252757992
aF4.996476004452617
aF4.984594200466224
aF4.972948558514171
aF4.961530894522914
aF4.950333378678326
aF4.939348517674362
aF4.928569137925545
aF4.9179883696886435
aF4.907599632042624
aF4.8973966186787
aF4.887373284455498
aF4.877523832676992
aF4.867842703053411
aF4.858324560307576
aF4.848964283391224
aF4.839756955277762
aF4.830697853299708
aF4.821782440000799
aF4.813006354474302
aF4.804365404160601
aF4.795855557078706
aF4.787472934467482
aF4.77921380381388
aF4.771074572246544
aF4.763051780274449
aF4.755142095851161
aF4.74734230874663
aF4.739649325209072
aF4.732060162900854
aF4.724571946092807
aF4.7171819011026415
aF4.7098873519635625
aF4.702685716310318
aF4.695574501470361
aF4.6885513007487
aF4.68161378989557
aF4.674759723746751
aF4.6679869330268176
aF4.6612933213063705
aF4.654676862104696
aF4.648135596129735
aF4.641667628647953
aF4.635271126976793
aF4.628944318093337
aF4.622685486352436
aF4.616492971308855
aF4.610365165637484
aF4.604300513146641
aF4.598297506879296
aF4.592354687297794
aF4.586470640547623
aF4.580643996796024
aF4.574873428641734
aF4.569157649592178
aF4.563495412604629
aF4.557885508688134
aF4.552326765563244
aF4.546818046376614
aF4.541358248467736
aF4.535946302185451
aF4.530581169751619
aF4.525261844169826
aF4.519987348177021
aF4.514756733235943
aF4.509569078566571
aF4.50442349021478
aF4.499319100156401
aF4.494255065435258
aF4.489230567333557
aF4.484244810573204
aF4.479297022546698
aF4.474386452576438
aF4.469512371200937
aF4.464674069487165
aF4.459870858367635
aF4.455102068001271
aF4.450367047157207
aF4.445665162620383
aF4.440995798618149
aF4.436358356267053
aF4.431752253038953
aF4.427176922245707
aF4.422631812541708
aF4.418116387443591
aF4.413630124866392
aF4.4091725166756195
aF4.404743068254491
aF4.4003412980859515
aF4.395966737348687
aF4.391618929526872
aF4.387297430032884
aF4.38300180584269
aF4.3787316351433745
aF4.374486506992366
aF4.370266020987911
aF4.3660697869504705
aF4.361897424614571
aF4.357748563330787
aF4.3536228417774225
aF4.34951990768168
aF4.34543941754983
aF4.341381036406185
aF4.337344437540512
aF4.333329302263582
aF4.3293353196706565
aF4.325362186412516
aF4.321409606473862
aF4.317477290958813
aF4.313564957883278
aF4.3096723319738555
aF4.305799144473257
aF4.301945132951804
aF4.29811004112492
aF4.294293618676459
aF4.290495621087519
aF4.286715809470666
aF4.282953950409402
aF4.279209815802655
aF4.275483182714089
aF4.271773833226225
aF4.268081554299
aF4.264406137632767
aF4.260747379535611
aF4.257105080794686
aF4.253479046551568
aF4.249869086181524
aF4.246275013176361
aF4.24269664503101
aF4.239133803133569
aF4.235586312658622
aF4.2320540024639515
aF4.2285367049903115
aF4.225034256164305
aF4.221546495304183
aF4.218073265028519
aF4.214614411167663
aF4.211169782677837
aF4.207739231557831
aF4.204322612768252
aF4.200919784153112
aF4.197530606363884
aF4.194154942785691
aF4.190792659465815
aF4.1874436250442955
aF4.1841077106865505
aF4.180784790018048
aF4.177474739060903
aF4.174177436172322
aF4.1708927619848915
aF4.16762059934858
aF4.1643608332744755
aF4.161113350880191
aF4.1578780413367635
aF4.154654795817214
aF4.151443507446565
aF4.148244071253241
aF4.145056384121993
aF4.1418803447480315
aF4.138715853592641
aF4.13556281283995
aF4.132421126354959
aF4.129290699642837
aF4.126171439809253
aF4.123063255521948
aF4.119966056973327
aF4.116879755844142
aF4.113804265268207
aF4.110739499797997
aF4.107685375371426
aF4.104641809279275
aF4.101608720133774
aF4.098586027837957
aF4.095573653555776
aF4.092571519683238
aF4.089579549820144
aF4.086597668742726
aF4.083625802376984
aF4.080663877772741
aF4.077711823078461
aF4.074769567516691
aF4.071837041360157
aF4.068914175908604
aF4.066000903466101
aF4.063097157319113
aF4.060202871715056
aF4.0573179818414555
aF4.0544424238056465
aF4.051576134615052
aF4.0487190521578995
aF4.045871115184545
aF4.0430322632892075
aF4.040202436892196
aF4.037381577222635
aF4.03456962630162
aF4.03176652692574
aF4.028972222651159
aF4.026186657778013
aF4.023409777335198
aF4.020641527065607
aF4.017881853411667
aF4.015130703501342
aF4.012388025134374
aF4.009653766768967
aF4.00692787750874
aF4.004210307090039
aF4.001501005869558
aF3.998799924812256
aF3.9961070154795633
aF3.993422230017969
aF3.9907455211477085
aF3.9880768421518953
aF3.985416146865854
aF3.9827633896667125
aa(lp3
F192.82543019643018
aF128.00415973476717
aF75.96577913787885
aF48.35993290233393
aF36.02764378196308
aF30.46417659954076
aF27.36476390395521
aF25.117745340336555
aF23.247180160126593
aF21.63276102627142
aF20.234628232488593
aF19.024357481995384
aF17.97535358174039
aF17.06373459206413
aF16.26900714192804
aF15.573858207794151
aF14.963676036068208
aF14.426101892245976
aF13.950667070968025
aF13.528497977036649
aF13.152069697151827
aF12.81499707557375
aF12.511857339366188
aF12.238040038835896
aF11.989620543551428
aF11.763253616685853
aF11.5560839457073
aF11.365670917122717
aF11.189925328547792
aF11.027056098195636
aF10.87552534872261
aF10.734010510181726
aF10.601372311031561
aF10.476627713070254
aF10.358927001748782
aF10.247534372750597
aF10.141811463412095
aF10.041203367189436
aF9.9452267440315
aF9.85345970175229
aF9.765533175425494
aF9.681123575202863
aF9.59994650923449
aF9.521751418742834
aF9.446316987761714
aF9.373447211417389
aF9.302968024578885
aF9.234724407802956
aF9.168577900208993
aF9.10440445963217
aF9.042092619439627
aF8.981541899025153
aF8.922661431444999
aF8.86536877711178
aF8.809588897080026
aF8.755253263366821
aF8.702299087067283
aF8.650668647837637
aF8.600308710706791
aF8.551170018207149
aF8.503206847541993
aF8.456376623974712
aF8.410639582877678
aF8.365958473944199
aF8.3222983019776
aF8.27962609944883
aF8.237910726677724
aF8.197122696062191
aF8.157234017265507
aF8.118218060690058
aF8.080049436923552
aF8.042703890151246
aF8.00615820379309
aF7.970390116851512
aF7.935378249653575
aF7.901102037839145
aF7.867541673594795
aF7.834678053258994
aF7.802492730534766
aF7.770967874640953
aF7.740086232816273
aF7.709831096662285
aF7.680186271874518
aF7.651136050965275
aF7.62266518862977
aF7.594758879449031
aF7.567402737659482
aF7.540582778751187
aF7.514285402685032
aF7.488497378543656
aF7.463205830452849
aF7.438398224628919
aF7.41406235742496
aF7.390186344263219
aF7.366758609354172
aF7.343767876114477
aF7.321203158206253
aF7.299053751128849
aF7.277309224302803
aF7.255959413592338
aF7.234994414219169
aF7.214404574025953
aF7.194180487052751
aF7.1743129873939075
aF7.154793143306964
aF7.135612251548368
aF7.116761831914149
aF7.0982336219658535
aF7.080019571924828
aF7.062111839720108
aF7.04450278617654
aF7.027184970331995
aF7.010151144873573
aF6.9933942516839815
aF6.976907417490926
aF6.960683949612391
aF6.944717331792586
aF6.9290012201233635
aF6.9135294390468705
aF6.898295977435854
aF6.88329498474828
aF6.868520767253695
aF6.85396778432894
aF6.839630644821019
aF6.82550410347573
aF6.811583057430354
aF6.797862542769051
aF6.784337731140052
aF6.771003926433664
aF6.757856561520198
aF6.744891195047
aF6.732103508294209
aF6.719489302088513
aF6.7070444937742675
aF6.694765114241726
aF6.682647305011884
aF6.670687315377236
aF6.658881499598515
aF6.647226314156615
aF6.635718315059371
aF6.624354155202951
aF6.6131305817871855
aF6.602044433784685
aF6.591092639463035
aF6.580272213959841
aF6.569580256909922
aF6.5590139501244
aF6.548570555321007
aF6.538247411905097
aF6.528041934800937
aF6.5179516123325625
aF6.507974004153661
aF6.498106739226003
aF6.4883475138456035
aF6.478694089716123
aF6.469144292068826
aF6.459696007828386
aF6.450347183824018
aF6.441095825044961
aF6.431939992940016
aF6.422877803759988
aF6.4139074269427425
aF6.405027083539865
aF6.39623504468419
aF6.387529630097796
aF6.378909206639273
aF6.370372186889881
aF6.361917027777665
aF6.353542229238853
aF6.345246332915799
aF6.337027920890689
aF6.328885614454267
aF6.320818072908953
aF6.31282399240548
aF6.304902104812267
aF6.297051176617147
aF6.289270007860214
aF6.281557431097573
aF6.273912310394895
aF6.266333540350349
aF6.258820045145983
aF6.251370777627147
aF6.243984718408993
aF6.236660875009472
aF6.229398281008452
aF6.2221959952317345
aF6.215053100959942
aF6.207968705161061
aF6.200941937746661
aF6.193971950850516
aF6.18705791812956
aF6.18019903408619
aF6.173394513411754
aF6.166643590350162
aF6.159945518081504
aF6.153299568124834
aF6.14670502975979
aF6.140161209466363
aF6.133667430382397
aF6.127223031778273
aF6.120827368548324
aF6.114479810718471
aF6.108179742969593
aF6.1019265641762725
aF6.095719686960315
aF6.0895585372586485
aF6.083442553905457
aF6.077371188227485
aF6.071343903652849
aF6.065360175332493
aF6.059419489773971
aF6.053521344487322
aF6.047665247642527
aF6.0418507177382885
aF6.036077283281722
aF6.030344482478616
aF6.024651862933977
aF6.0189989813625875
aF6.013385403309033
aF6.00781070287718
aF6.002274462468705
aF5.996776272530292
aF5.991315731309276
aF5.985892444617621
aF5.980506025603667
aF5.975156094531661
aF5.969842278568681
aF5.964564211578764
aF5.959321533923934
aF5.954113892272057
aF5.948940939411111
aF5.943802334069731
aF5.9386977407440185
aF5.9336268295300165
aF5.928589275961947
aF5.923584760856057
aF5.9186129701596055
aF5.913673594805147
aF5.908766330569682
aF5.903890877938641
aF5.899046941974559
aF5.894234232190099
aF5.889452462425561
aF5.884701350730492
aF5.879980619249359
aF5.875289994111089
aF5.870629205322484
aF5.865997986665141
aF5.861396075596017
aF5.856823213151314
aF5.852279143853638
aF5.847763615622431
aF5.843276379687289
aF5.838817190504432
aF5.834385805675844
aF5.8299819858713
aF5.8256054947529226
aF5.821256098902452
aF5.81693356775086
aF5.812637673510402
aF5.808368191109029
aF5.804124898126869
aF5.799907574735054
aF5.795716003636423
aF5.791549970008394
aF5.787409261447637
aF5.7832936679166504
aF5.779202981692122
aF5.775136997315073
aF5.7710955115425575
aF5.767078323301105
aF5.76308523364157
aF5.759116045695656
aF5.755170564633634
aF5.7512485976237695
aF5.747349953792758
aF5.743474444187729
aF5.7396218817393425
aF5.735792081226101
aF5.731984859239928
aF5.728200034152665
aF5.724437426083856
aF5.720696856869493
aF5.716978150031664
aF5.713281130749316
aF5.709605625829836
aF5.705951463681643
aF5.702318474287502
aF5.6987064891787735
aF5.69511534141045
aF5.691544865536937
aF5.687994897588567
aF5.684465275048915
aF5.680955836832677
aF5.677466423264354
aF5.673996876057473
aF5.670547038294467
aF5.66711675440712
aF5.663705870157699
aF5.660314232620436
aa(lp4
F206.92130621075876
aF37.798223750131484
aF899.6970053817785
aF1396.2008513519008
aF16.714307848268465
aF1843.0457535242647
aF3198.442129688937
aF1034.7750002168252
aF603.1287327714737
aF126.376145728597
aF1397.8599080969245
aF2743.466314533762
aF493.86202212690876
aF765.646776629169
aF2643.8317030665403
aF1503.1809638142133
aF875.6867891391029
aF566.6681778732103
aF683.8726537109143
aF2486.042951388717
aF2447.964666154178
aF184.9272503011225
aF2038.3310126517872
aF5889.575174239997
aF2470.701341525802
aF524.9115561637967
aF6902.996754394721
aF9471.400279021153
aF2316.5689400320016
aF1420.9933391512304
aF9724.963303470931
aF11342.144629206305
aF2762.920228080669
aF343.2943996983578
aF3738.2257313145687
aF6388.362353139979
aF3916.6677159622627
aF958.6235979175223
aF431.49840416820416
aF2380.9119572810214
aF3104.4362218529723
aF1438.6249481149928
aF337.3272419772382
aF1502.9339876031008
aF2556.2551912107024
aF1513.4634907480036
aF382.66883780955123
aF1234.2936915566224
aF2400.602661895325
aF1718.449324799218
aF354.6693441329779
aF542.6533910240156
aF1650.34285646633
aF1761.6173562894055
aF766.8290569948799
aF149.5672751954715
aF659.4937432092058
aF1310.0374473145553
aF1053.862635699489
aF327.7777133170712
aF190.77690701866914
aF655.8998850870173
aF898.0706271093169
aF572.7020612957447
aF181.2367224591843
aF218.5795547159807
aF500.6018745140891
aF557.9318931430959
aF326.11341208219244
aF141.65132501253967
aF208.50071518561603
aF356.8885354184647
aF349.7787448775102
aF209.9447093195791
aF131.46310967322222
aF186.17445717356554
aF257.9988040054157
aF236.63741783514246
aF158.72203661048263
aF126.88286921716258
aF162.09561161471686
aF195.5184007587137
aF177.3736453324736
aF136.10837573478304
aF123.81549409432307
aF144.10168568706666
aF158.94563067225337
aF146.73827303285265
aF125.57012385836295
aF120.89063766585876
aF131.67368787939722
aF138.00669746722238
aF130.5900328236194
aF119.85872052781686
aF118.09744866914882
aF123.54527748915856
aF126.01416934921873
aF121.66075543363229
aF116.19729884942646
aF115.42307551450023
aF117.97746036889305
aF118.7731811422777
aF116.22782534063558
aF113.36623018179692
aF112.91478169033807
aF113.97942747747989
aF114.05069238818612
aF112.50992175838044
aF110.91723037729638
aF110.53617746628201
aF110.84373419885733
aF110.61863161084679
aF109.62191944943159
aF108.64467290732799
aF108.270696754833
aF108.2066396451329
aF107.86372239921047
aF107.15569133159107
aF106.4761742536453
aF106.09265942127793
aF105.84937380679125
aF105.46515491405175
aF104.90972041690003
aF104.37638314500862
aF103.98742589669064
aF103.66209776967365
aF103.26722593680945
aF102.79310546443361
aF102.33320012201489
aF101.94327476496136
aF101.58295888440294
aF101.1896224216019
aF100.76025773972884
aF100.33950509215805
aF99.95281006109477
aF99.5803920647319
aF99.19298426801022
aF98.78971437655763
aF98.39162049587704
aF98.01034921771713
aF97.63647205883356
aF97.25637986367445
aF96.86977612426043
aF96.48646272094595
aF96.11178789264827
aF95.74133472164257
aF95.36879524186887
aF94.9940253745668
aF94.62153805805089
aF94.25380552915011
aF93.88880925121441
aF93.52364049440013
aF93.1582049192021
aF92.79455766257945
aF92.4338408274656
aF92.075138603101
aF91.71710412455623
aF91.35966445204124
aF91.00374578084794
aF90.64988379598049
aF90.29768000795825
aF89.94652230742531
aF89.59636587431662
aF89.24762593858296
aF88.90055105398794
aF88.55496492065879
aF88.2105847916639
aF87.86738189140928
aF87.52554480600206
aF87.18519791930657
aF86.8462757378891
aF86.50865869686058
aF86.17233655008347
aF85.8373969696132
aF85.5039003684351
aF85.17182084358981
aF84.84110582730261
aF84.51175189942063
aF84.18380289274134
aF83.85729383734962
aF83.53222164404443
aF83.20856937590732
aF82.88634017221776
aF82.56555773852583
aF82.24624199042415
aF81.92839567923552
aF81.61201503995902
aF81.29710541476022
aF80.98368197778905
aF80.67175855463856
aF80.36134060051779
aF80.05242898028568
aF79.74502663978993
aF79.43913914734887
aF79.13476995968949
aF78.83191736585424
aF78.53057622876814
aF78.23074114792114
aF77.93240695709939
aF77.63556676803523
aF77.34021065107784
aF77.0463264909533
aF76.75390163227364
aF76.46292343539488
aF76.17337868689609
aF75.88525315646345
aF75.59853202607778
aF75.31320065430106
aF75.02924486247909
aF74.74665068978321
aF74.4654041739556
aF74.18549150372475
aF73.9068993371633
aF73.62961492394646
aF73.35362598088554
aF73.07892055123952
aF72.80548701618268
aF72.53331419020974
aF72.26239134826676
aF71.99270815149892
aF71.72425456431169
aF71.45702083622515
aF71.19099752677396
aF70.92617550650982
aF70.66254591293583
aF70.40010009926226
aF70.13882960960477
aF69.87872617665482
aF69.619781715328
aF69.36198829978247
aF69.10533813844849
aF68.84982356065228
aF68.59543701453651
aF68.34217106446158
aF68.09001838281314
aF67.83897173899882
aF67.58902399464893
aF67.34016810316204
aF67.092397111258
aF66.84570415813725
aF66.60008247423868
aF66.35552538171146
aF66.11202629698113
aF65.86957873416262
aF65.62817630735633
aF65.38781273284202
aF65.1484818311272
aF64.91017753128565
aF64.67289387480407
aF64.43662501974603
aF64.20136524454789
aF63.96710895195781
aF63.73385067338699
aF63.50158507268428
aF63.27030695024964
aF63.040011245709806
aF62.810693040752156
aF62.582347560596084
aF62.354970174694984
aF62.128556397592384
aF61.903101886480556
aF61.67860243910559
aF61.45505398953086
aF61.23245260315344
aF61.01079447016747
aF60.790075897506625
aF60.57029330020887
aF60.3514431912559
aF60.133522170469256
aF59.916526913049815
aF59.70045415694887
aF59.485300690272794
aF59.27106333779972
aF59.057738948051856
aF58.84532438020973
aF58.63381649122342
aF58.42321212379228
aF58.21350809497604
aF58.00470118531832
aF57.79678812931941
aF57.589765607512206
aF57.38363023848942
aF57.17837857439677
aF56.97400709574458
aF56.770512209349455
aF56.56789024634639
aF56.36613746288773
aF56.16525004116275
aF55.96522409170378
aF55.76605565767268
aF55.567740718111665
aF55.3702751935452
aF55.17365495092695
aF54.97787580912255
aF54.78293354422559
aF54.588823895035034
aF54.395542567211365
aF54.2030852379313
aF54.011447559236075
aF53.82062516074263
aa(lp5
F195.83146964986187
aF53.011242823642775
aF93.07612070913981
aF312.69183811313
aF267.84039968804774
aF23.839502418263162
aF159.45989057658358
aF474.68094912854644
aF390.8856662571985
aF66.60898588018503
aF70.39543041345158
aF360.6600446209214
aF399.38486839012705
aF119.76153834092058
aF35.3352796264131
aF144.60251271191385
aF229.38566161681118
aF202.3704239439059
aF112.36439782073792
aF40.812561607885286
aF20.79741711208265
aF33.36275055555713
aF43.38753580557482
aF35.8743280405988
aF20.599565293737474
aF10.296810150954407
aF8.894930264573333
aF12.233951197286455
aF14.245812315028656
aF12.696963718679138
aF9.37647065382623
aF6.93780169841905
aF6.41794105204025
aF7.015768616584293
aF7.431632915465562
aF7.138728417188995
aF6.5127039800036
aF6.106101327633396
aF6.064988226232337
aF6.167424596329138
aF6.175540754628883
aF6.047301025575454
aF5.887844515987367
aF5.795591906683819
aF5.77729621784494
aF5.776803934484869
aF5.748446967141891
aF5.69299021510436
aF5.637975961680816
aF5.601783791723422
aF5.580489005495219
aF5.560154525078078
aF5.533065619294988
aF5.501841791875393
aF5.472790255281222
aF5.448730746127093
aF5.427804137418783
aF5.4069178179915145
aF5.384928815795515
aF5.362828157175144
aF5.341948321709058
aF5.322588530888961
aF5.304124800165267
aF5.285908672520348
aF5.267830106645212
aF5.250174401012048
aF5.233184097978805
aF5.2168360496294515
aF5.200947617272366
aF5.185385664316152
aF5.170149398242552
aF5.1553022686933865
aF5.140874042685397
aF5.126833154762824
aF5.1131262916892215
aF5.099722648682926
aF5.0866209171896095
aF5.073827395938042
aF5.061336416154953
aF5.049129859441312
aF5.037188649953473
aF5.025501063226832
aF5.014061547286966
aF5.00286483776438
aF4.991902535970598
aF4.981164258217435
aF4.970640481117169
aF4.960323800537605
aF4.95020806157412
aF4.94028697352841
aF4.930553662902108
aF4.921001194160619
aF4.911623193930781
aF4.902413957820178
aF4.89336813364104
aF4.8844804244858455
aF4.875745563334702
aF4.867158464555082
aF4.858714333743194
aF4.8504086421537504
aF4.842237033893632
aF4.834195270104185
aF4.8262792404568735
aF4.818484999037281
aF4.81080877613026
aF4.8032469584404485
aF4.795796062215844
aF4.788452720857386
aF4.781213687104007
aF4.774075836764023
aF4.767036164994192
aF4.760091776885934
aF4.753239879036165
aF4.746477775561939
aF4.7398028667806145
aF4.733212647149335
aF4.7267047011696235
aF4.720276698443872
aF4.713926389504523
aF4.707651602824027
aF4.701450242311328
aF4.695320284577876
aF4.689259775906071
aF4.6832668293034825
aF4.6773396219301215
aF4.671476392840898
aF4.665675440810286
aF4.659935122102309
aF4.654253848229206
aF4.648630083811193
aF4.643062344589172
aF4.637549195558859
aF4.6320892491736325
aF4.626681163597803
aF4.621323641026965
aF4.616015426092115
aF4.610755304343515
aF4.605542100794957
aF4.600374678513684
aF4.59525193725435
aF4.590172812143241
aF4.585136272416794
aF4.58014132021247
aF4.575186989407655
aF4.570272344502892
aF4.565396479548361
aF4.5605585171127565
aF4.555757607292399
aF4.5509929267573135
aF4.546263677831654
aF4.541569087606874
aF4.5369084070867425
aF4.532280910364041
aF4.5276858938278295
aF4.523122675400174
aF4.518590593801191
aF4.514089007841232
aF4.50961729573908
aF4.505174854465034
aF4.500761099107725
aF4.496375462263334
aF4.492017393446657
aF4.487686358522919
aF4.483381839159886
aF4.479103332299498
aF4.474850349648383
aF4.470622417186541
aF4.466419074693592
aF4.462239875291759
aF4.458084385005059
aF4.453952182333962
aF4.449842857844987
aF4.4457560137744885
aF4.441691263646456
aF4.437648231903427
aF4.43362655355039
aF4.429625873811053
aF4.4256458477960745
aF4.421686140182818
aF4.417746424906225
aF4.413826384860401
aF4.409925711610416
aF4.406044105114113
aF4.402181273453412
aF4.398336932574832
aF4.394510806038885
aF4.390702624778097
aF4.386912126863211
aF4.38313905727747
aF4.379383167698489
aF4.375644216287644
aF4.3719219674865375
aF4.3682161918204105
aF4.364526665708172
aF4.360853171278848
aF4.35719549619424
aF4.353553433477515
aF4.34992678134758
aF4.346315343059011
aF4.342718926747337
aF4.339137345279495
aF4.335570416109313
aF4.332017961137748
aF4.328479806577886
aF4.324955782824229
aF4.3214457243265505
aF4.317949469467729
aF4.314466860445752
aF4.310997743159514
aF4.307541967098448
aF4.304099385235686
aF4.300669853924873
aF4.297253232800184
aF4.293849384679751
aF4.2904581754721445
aF4.287079474085953
aF4.283713152342262
aF4.280359084889994
aF4.2770171491239815
aF4.27368722510564
aF4.270369195486289
aF4.267062945432835
aF4.263768362555904
aF4.260485336840249
aF4.257213760577409
aF4.253953528300431
aF4.250704536720785
aF4.247466684667179
aF4.244239873026377
aF4.241024004685833
aF4.237818984478194
aF4.234624719127469
aF4.231441117196953
aF4.228268089038762
aF4.22510554674491
aF4.221953404099942
aF4.218811576535066
aF4.215679981083593
aF4.2125585363379425
aF4.209447162407721
aF4.2063457808793645
aF4.2032543147768
aF4.200172688523431
aF4.197100827905226
aF4.194038660034959
aF4.190986113317527
aF4.187943117416319
aF4.184909603220612
aF4.1818855028138735
aF4.178870749443173
aF4.175865277489321
aF4.172869022438057
aF4.169881920851997
aF4.166903910343461
aF4.163934929548086
aF4.160974918099225
aF4.158023816603088
aF4.155081566614675
aF4.152148110614277
aF4.14922339198481
aF4.146307354989744
aF4.14339994475165
aF4.140501107231405
aF4.1376107892080025
aF4.134728938258904
aF4.131855502740967
aF4.128990431771974
aF4.126133675212603
aF4.123285183648953
aF4.12044490837558
aF4.117612801378977
aF4.114788815321556
aF4.111972903526012
aF4.109165019960232
aF4.106365119222552
aF4.103573156527377
aF4.100789087691354
aF4.098012869119753
aF4.095244457793349
aF4.0924838112556134
aF4.089730887600233
aF4.0869856454590305
aF4.084248043990157
aF4.08151804286664
aF4.07879560226524
aF4.076080682855563
aF4.07337324578952
aF4.070673252691062
aF4.0679806656461395
aF4.065295447192984
aF4.062617560312616
aF4.059946968419624
aF4.057283635353162
aF4.054627525368213
aF4.051978603127056
aF4.049336833690941
aF4.0467021825120515
aF4.044074615425586
aF4.041454098642093
aF4.038840598739994
aa(lp6
F172.59028226458753
aF166.0020785052806
aF153.9427027457541
aF137.92281919156622
aF119.63876430930854
aF100.77525576708305
aF82.83777722154956
aF67.02750873054293
aF54.16513699459171
aF44.66390619825549
aF38.54742253388848
aF35.5041874007779
aF34.968549649717595
aF36.21660676887275
aF38.46545784307782
aF40.96508424958326
aF43.073971141006425
aF44.312254382632204
aF44.38940054161935
aF43.2067740788455
aF40.838426710159816
aF37.49563104358777
aF33.481818543302424
aF29.144641360452
aF24.831035735926378
aF20.84972818328144
aF17.443933987009803
aF14.775343074958373
aF12.91907326911098
aF11.86820130335132
aF11.545785626645454
aF11.821947976404307
aF12.533531319047702
aF13.504037255271205
aF14.561902112146573
aF15.555636499522054
aF16.364871929083836
aF16.906880091184426
aF17.138612588808478
aF17.054716796869627
aF16.682292316218298
aF16.073348373287523
aF15.296002842449498
aF14.42543625013867
aF13.535495909612559
aF12.691659296611494
aF11.945838317646455
aF11.333264030401747
aF10.871459222976773
aF10.561104433458446
aF10.388446433478686
aF10.328795816010675
aF10.350614988540125
aF10.419706873174702
aF10.503070507561706
aF10.572081456921804
aF10.604769140875486
aF10.587085690795455
aF10.51317829096492
aF10.384777629432111
aF10.20989065232123
aF10.001031522038272
aF9.773239600608484
aF9.542119991132362
aF9.322106023427542
aF9.125091201166892
aF8.959518380784504
aF8.829953865724802
aF8.737120090346696
aF8.678317386183364
aF8.648135800633922
aF8.639343003662248
aF8.643833227774511
aF8.653532893307334
aF8.66117816311845
aF8.660904816346097
aF8.648618181394259
aF8.62213738863497
aF8.581131412912939
aF8.526882495678358
aF8.461924546365532
aF8.38960974037426
aF8.313656128042933
aF8.237723539429599
aF8.165055671731276
aF8.098214433084014
aF8.038919873396818
aF7.987996732432921
aF7.945417922701317
aF7.910426978176236
aF7.881716130096712
aF7.857634358097204
aF7.836400328681355
aF7.816298131525797
aF7.795838529867803
aF7.773874327487862
aF7.749664681145277
aF7.722889076681962
aF7.693616686755103
aF7.662240550851347
aF7.629388259987908
aF7.59582156569204
aF7.562336700205796
aF7.529675449702776
aF7.498454500615308
aF7.469117649467822
aF7.441912486878255
aF7.4168904483567974
aF7.393926908057297
aF7.372756430413496
aF7.353017452994033
aF7.334300533569646
aF7.316194768325078
aF7.298327939781974
aF7.280397217337608
aF7.262188637817388
aF7.24358497646986
aF7.2245628443188075
aF7.205180815073279
aF7.1855610335544515
aF7.16586706800963
aF7.146280757590631
aF7.126980520264329
aF7.108123092971329
aF7.089830053652847
aF7.072179804342495
aF7.055205049928635
aF7.038895249560666
aF7.023203090878477
aF7.0080537659341475
aF6.993355717431817
aF6.979011563348646
aF6.96492807221842
aF6.951024316343462
aF6.937237437488346
aF6.923525780807914
aF6.909869453421018
aF6.896268616601688
aF6.882740006194579
aF6.869312285179154
aF6.85602086497811
aF6.842902795640603
aF6.829992232899114
aF6.8173168595277165
aF6.804895488112558
aF6.792736920330279
aF6.780839999778121
aF6.769194683326237
aF6.757783877538364
aF6.746585745099595
aF6.735576180380736
aF6.724731178760404
aF6.714028874089759
aF6.703451084237709
aF6.6929842771220835
aF6.682619940703733
aF6.672354403106628
aF6.662188198176866
aF6.652125104356099
aF6.642170999773341
aF6.632332674914434
aF6.622616728605964
aF6.613028646917019
aF6.603572132060833
aF6.594248713657567
aF6.5850576416175635
aF6.575996031542057
aF6.5670592121141045
aF6.55824121065729
aF6.549535308074525
aF6.540934597072155
aF6.532432486577012
aF6.524023108763821
aF6.515701601127314
aF6.507464252580199
aF6.4993085178857575
aF6.49123291746057
aF6.483236848786065
aF6.47532034091291
aF6.467483784855093
aF6.459727670475017
aF6.452052355473594
aF6.444457885221615
aF6.4369438743644345
aF6.429509453323428
aF6.42215327579773
aF6.414873577737888
aF6.407668274394624
aF6.400535080082918
aF6.39347163517456
aF6.386475626292807
aF6.3795448883604715
aF6.372677480600654
aF6.365871732353158
aF6.359126258218869
aF6.35243994522854
aF6.345811917192192
aF6.339241482975863
aF6.33272807613206
aF6.326271193143061
aF6.319870336654118
aF6.313524968670881
aF6.307234476984995
aF6.300998156292099
aF6.294815203772329
aF6.288684727470915
aF6.282605764755294
aF6.2765773074892
aF6.270598330359225
aF6.264667818974418
aF6.258784794860973
aF6.25294833519736
aF6.247157585974049
aF6.241411768116764
aF6.235710176892082
aF6.2300521755526175
aF6.224437184629089
aF6.218864668521137
aF6.213334121080671
aF6.207845051745509
aF6.202396973506554
aF6.196989393625445
aF6.191621807612055
aF6.186293696569519
aF6.181004527658775
aF6.175753757153924
aF6.1705408353727815
aF6.165365212679122
aF6.160226345758686
aF6.155123703457658
aF6.150056771618234
aF6.145025056528857
aF6.140028086802945
aF6.135065413686421
aF6.130136609955756
aF6.125241267688915
aF6.120378995268006
aF6.115549413999952
aF6.11075215472766
aF6.105986854752402
aF6.101253155313042
aF6.0965506997766585
aF6.091879132601866
aF6.0872380990501025
aF6.082627245547975
aF6.0780462205519505
aF6.073494675737509
aF6.068972267327592
aF6.0644786573874985
aF6.060013514942126
aF6.0555765168102464
aF6.051167348094559
aF6.046785702310685
aF6.042431281177539
aF6.038103794123566
aF6.033802957584715
aF6.029528494181
aF6.025280131859274
aF6.021057603080942
aF6.016860644118289
aF6.012688994503534
aF6.008542396653162
aF6.004420595669684
aF6.000323339304758
aF5.9962503780541745
aF5.992201465345932
aF5.988176357779274
aF5.984174815373638
aF5.980196601791382
aF5.97624148450655
aF5.9723092349013385
aF5.968399628282459
aF5.964512443818966
aF5.960647464411131
aF5.956804476506136
aF5.952983269879315
aF5.9491836374015135
aF5.945405374810903
aF5.941648280505968
aF5.937912155370758
aF5.93419680264015
aF5.930502027806847
aF5.92682763856827
aF5.923173444807359
aF5.919539258599344
aF5.915924894234758
aF5.912330168249069
aF5.908754899450302
aF5.90519890893712
aF5.901662020102512
aF5.898144058620204
aF5.8946448524134265
aF5.89116423160736
aF5.887702028468466
aF5.884258077334877
aF5.880832214542183
aF5.87742427834927
aF5.874034108868061
aF5.8706615480004345
aF5.867306439384047
aa(lp7
F207.62715013317063
aF131.1357707464274
aF47.1457920118373
aF56.98604638730429
aF199.98831901605715
aF387.99430147502744
aF449.0223904659981
aF298.46779899844734
aF76.82581286416638
aF28.623114006556996
aF237.02722292641903
aF557.7541896023205
aF772.3572570176118
aF746.0877214589109
aF512.8404077930805
aF236.1009259475055
aF57.484073480958045
aF12.435091170980895
aF71.96600641891648
aF184.742793144798
aF280.4009011208241
aF293.06679278564087
aF240.1964689742039
aF227.0802767860068
aF251.4340662387049
aF196.64303836555771
aF87.34252990319303
aF31.474944547116333
aF26.707884304103438
aF42.52731810041274
aF68.17904980608817
aF90.76654095009712
aF96.72628417608847
aF82.90286720422473
aF62.24452130847533
aF51.81481166658046
aF56.37568025647393
aF69.1641919043094
aF82.21099663526962
aF91.06140865208235
aF94.21155869925948
aF91.71248063090813
aF84.40567016788269
aF73.64013706840804
aF61.157499668782684
aF48.95644853936805
aF39.03688267883444
aF32.998234420505995
aF31.557885137367066
aF34.16151075810437
aF38.94890630870826
aF43.30686357402413
aF44.951356971189774
aF43.01932768628837
aF38.41597297319296
aF33.07213380546952
aF28.670514063083697
aF25.871355001339484
aF24.440863652315038
aF23.794013297977887
aF23.39937051987515
aF22.930601341950055
aF22.27562617961233
aF21.491768583794286
aF20.73384808738281
aF20.16306534210004
aF19.859621978483233
aF19.77680818104667
aF19.75937533819056
aF19.612013044680317
aF19.1783166815894
aF18.395184306866742
aF17.309227177683255
aF16.059319862876627
aF14.836470554496927
aF13.833386036859718
aF13.195962221435789
aF12.988607262491417
aF13.182809223721616
aF13.671170507790876
aF14.299582103532924
aF14.904961344694504
aF15.347705464964859
aF15.533160167442514
aF15.421020232012832
aF15.024345070306135
aF14.400970703790891
aF13.64011213124827
aF12.84647912549207
aF12.123746295953978
aF11.558995388973255
aF11.209814714461004
aF11.095883336023572
aF11.196714080356706
aF11.45645756178393
aF11.795267128866504
aF12.125102260507049
aF12.366643067981194
aF12.463684570608342
aF12.392060133256903
aF12.161536203694961
aF11.81079138507989
aF11.397110868994812
aF10.983450468873647
aF10.625849236821907
aF10.363767011600208
aF10.214951451483287
aF10.17520711993877
aF10.222310676621113
aF10.322579973792488
aF10.438375570297389
aF10.535019543268106
aF10.586075331205839
aF10.576452011985296
aF10.50324804110032
aF10.37458273918806
aF10.206882554246134
aF10.021216139604855
aF9.839324754443702
aF9.679976516213792
aF9.556181693738381
aF9.473643231569516
aF9.430597871648382
aF9.41896088156842
aF9.426464641149412
aF9.439321437299702
aF9.444875683036113
aF9.433752414852464
aF9.401145962813489
aF9.34709274665855
aF9.275789430422261
aF9.194203967097481
aF9.110343498251588
aF9.03156944738734
aF8.963289328658892
aF8.90823062524132
aF8.866351350469197
aF8.835302983880318
aF8.811263758222942
aF8.789917774371835
aF8.767366241135491
aF8.740807782046067
aF8.708896609596614
aF8.671762515855463
aF8.630741292173349
aF8.587909747806117
aF8.545541976377809
aF8.50560270675253
aF8.469372349489701
aF8.43726222388483
aF8.408834958260067
aF8.383002698084278
aF8.358342522941015
aF8.333450278935176
aF8.307253508902306
aF8.279220163781927
aF8.249427750880011
aF8.218490689120516
aF8.18737440704224
aF8.157146684014235
aF8.128725865240156
aF8.10268100367834
aF8.079122938173075
aF8.057702381634986
aF8.037706905457274
aF8.018228575226207
aF7.998361741584539
aF7.977387804402655
aF7.954910132038992
aF7.930915448078135
aF7.905754577788668
aF7.8800519192219145
aF7.854566258510308
aF7.830033398707847
aF7.807022507134407
aF7.785833323943006
aF7.7664517263462205
aF7.748568731999136
aF7.731655379560564
aF7.715075500577092
aF7.698212111708279
aF7.68058202454981
aF7.661917226167245
aF7.642199532973365
aF7.621645113474172
aF7.600645532192282
aF7.579679959384594
aF7.559217662574802
aF7.539630229536729
aF7.521129453704704
aF7.503740489538081
aF7.487312273388785
aF7.47155992636017
aF7.4561282921536804
aF7.4406628081327515
aF7.424873849099439
aF7.408583223644725
aF7.391745893275269
aF7.3744452207090285
aF7.356865090504941
aF7.339246186212579
aF7.321835945158689
aF7.304841998973739
aF7.288397369039451
aF7.272542761472801
aF7.257227650484923
aF7.242328188540769
aF7.227677016214567
aF7.213098264469227
aF7.198440686010015
aF7.183602868716912
aF7.168546560554683
aF7.153296778491619
aF7.137930020985378
aF7.122554040075601
aF7.107283888195585
aF7.092219177823825
aF7.077426740799961
aF7.0629313962207325
aF7.048715695705537
aF7.034727708047865
aF7.020894476614115
aF7.007137964446933
aF6.993390181666777
aF6.979604711492495
aF6.965762843549532
aF6.951873745514519
aF6.937969300153469
aF6.924095181710987
aF6.910300291678821
aF6.896626758699131
aF6.88310236297276
aF6.869736581653712
aF6.856520627333575
aF6.843431040796036
aF6.830435756359117
aF6.817501190855261
aF6.8045988596202545
aF6.791710272374528
aF6.778829330165968
aF6.765962017715648
aF6.753123740059907
aF6.740335080678264
aF6.727616988522841
aF6.714986408363437
aF6.702453174444865
aF6.690018651193862
aF6.6776762080696175
aF6.665413243396166
aF6.653214195040446
aF6.641063838628479
aF6.628950188900922
aF6.616866467975408
aF6.604811842840894
aF6.5927909073748925
aF6.580812134664248
aF6.568885706711189
aF6.5570212121199365
aF6.545225681300531
aF6.533502317289429
aF6.521850108906092
aF6.510264320905961
aF6.498737682717781
aF6.4872619755663985
aF6.475829666557599
aF6.4644352612703555
aF6.45307613222319
aF6.441752706518445
aF6.4304680334190225
aF6.419226873313592
aF6.408034531145095
aF6.3968956874076195
aF6.385813457136634
aF6.3747888413481935
aF6.363820643193943
aF6.352905823299478
aF6.3420401850728645
aF6.331219226262577
aF6.3204389755993065
aF6.309696652866803
aF6.29899103991915
aF6.288322516642522
aF6.27769278511962
aF6.267104363612059
aF6.2565599691445835
aF6.246061918227865
aF6.235611659950795
aF6.225209519663647
aF6.214854683618827
aF6.204545405576287
aF6.194279375202469
aF6.184054162320203
aF6.173867644287512
aF6.163718335569649
aF6.153605564935342
aF6.143529480198554
aF6.133490895602224
aF6.123491025916376
aF6.113531169060778
aF6.10361240318091
aa(lp8
F196.07009816206346
aF50.78249923698248
aF87.99026940969121
aF309.30190107025294
aF271.98388540805564
aF27.292428886024666
aF152.60279840909777
aF468.63315907265104
aF397.30917303007294
aF74.10935461416432
aF61.12785559843161
aF343.1412392827604
aF403.35384694047866
aF132.2043856503822
aF27.290397854956645
aF137.62864962975488
aF226.62483225773298
aF201.5078067148458
aF111.28633715897614
aF37.72384360087417
aF15.56977782636452
aF28.63624051487017
aF42.7034966519506
aF38.411247828615494
aF21.89077231566988
aF9.200468203081243
aF7.689506526690559
aF12.13200510866223
aF14.655710932531274
aF12.823472865979502
aF9.045515136235814
aF6.46315558332479
aF6.149055555762175
aF6.997903140728086
aF7.428075676316208
aF6.9415673281445205
aF6.154572147851731
aF5.753940912081662
aF5.808354386725818
aF5.964934109308863
aF5.947434580292711
aF5.763845121182236
aF5.577727497467773
aF5.500290289442365
aF5.510550945840649
aF5.522699327364494
aF5.487277131230537
aF5.421774515510972
aF5.367725616448606
aF5.342214375201668
aF5.331499350926599
aF5.315667519894652
aF5.28890277021927
aF5.258836941238707
aF5.234143394734581
aF5.2161716453646125
aF5.200486288080469
aF5.183060105049018
aF5.163706496589027
aF5.144678635761345
aF5.127591082423811
aF5.112147142701222
aF5.097127897327379
aF5.081838590723188
aF5.066507688510347
aF5.051689397292847
aF5.037606923673606
aF5.02405756497329
aF5.010746125019546
aF4.997574747972201
aF4.984640546252976
aF4.972056773844223
aF4.959830278599371
aF4.947885551628655
aF4.936155766690449
aF4.924630907413948
aF4.913335525588141
aF4.902283974267949
aF4.891462946139207
aF4.880846689355327
aF4.870418193367339
aF4.860174530733413
aF4.8501175750957515
aF4.840244288355805
aF4.830545645710922
aF4.821011788039815
aF4.811636199441896
aF4.802415415444662
aF4.79334625182293
aF4.784424061744852
aF4.775643222371247
aF4.766998530520619
aF4.758485859030166
aF4.750101744944564
aF4.741842692954306
aF4.73370493617506
aF4.725684686283328
aF4.717778441247775
aF4.709983034546189
aF4.702295473194838
aF4.694712790653627
aF4.687232040479032
aF4.679850377985346
aF4.672565115976243
aF4.665373708413695
aF4.658273700286592
aF4.651262698424107
aF4.644338377540654
aF4.637498497889378
aF4.630740909682836
aF4.624063541807028
aF4.617464388352733
aF4.6109415036414525
aF4.604493004614449
aF4.598117073132601
aF4.591811953715309
aF4.585575948225616
aF4.579407411306083
aF4.5733047482810125
aF4.567266414398208
aF4.561290913614151
aF4.555376796399441
aF4.549522657303829
aF4.543727133084246
aF4.537988901457929
aF4.53230668000044
aF4.526679224803107
aF4.521105328914789
aF4.515583820823323
aF4.510113563142262
aF4.504693451465979
aF4.499322413272007
aF4.4939994068127636
aF4.488723420029475
aF4.483493469540356
aF4.4783085997104095
aF4.473167881768326
aF4.468070412936524
aF4.463015315569185
aF4.458001736314833
aF4.453028845317938
aF4.448095835460567
aF4.443201921636295
aF4.438346340050607
aF4.433528347547556
aF4.428747220964356
aF4.424002256512756
aF4.419292769183299
aF4.414618092168302
aF4.4099775763022
aF4.405370589519537
aF4.400796516331736
aF4.396254757322774
aF4.391744728662935
aF4.38726586163975
aF4.3828176022055185
aF4.378399410540673
aF4.374010760632073
aF4.369651139865331
aF4.3653200486302115
aF4.361016999938432
aF4.356741519053555
aF4.352493143132769
aF4.348271420880286
aF4.344075912212041
aF4.339906187931431
aF4.335761829415496
aF4.331642428311319
aF4.327547586242064
aF4.3234769145223115
aF4.319430033882272
aF4.315406574200482
aF4.31140617424478
aF4.307428481421331
aF4.303473151531376
aF4.299539848535551
aF4.2956282443255684
aF4.2917380185029295
aF4.287868858164444
aF4.284020457694394
aF4.2801925185629885
aF4.276384749130953
aF4.272596864460005
aF4.268828586129073
aF4.2650796420560155
aF4.2613497663247575
aF4.257638699017595
aF4.253946186052531
aF4.250271979025525
aF4.246615835057451
aF4.242977516645615
aF4.239356791519642
aF4.235753432501763
aF4.232167217371057
aF4.228597928731816
aF4.2250453538857835
aF4.221509284708064
aF4.217989517526732
aF4.214485853005989
aF4.210998096032675
aF4.2075260556061505
aF4.204069544731318
aF4.200628380314813
aF4.197202383064141
aF4.19379137738979
aF4.19039519131008
aF4.187013656358825
aF4.183646607495598
aF4.180293883018585
aF4.176955324479916
aF4.173630776603449
aF4.170320087204795
aF4.16702310711374
aF4.163739690098742
aF4.160469692793675
aF4.157212974626525
aF4.153969397750151
aF4.150738826975004
aF4.147521129703673
aF4.144316175867267
aF4.141123837863617
aF4.137943990497149
aF4.134776510920397
aF4.131621278577237
aF4.128478175147518
aF4.125347084493401
aF4.122227892607023
aF4.119120487559657
aF4.116024759452255
aF4.112940600367319
aF4.109867904322087
aF4.106806567223019
aF4.103756486821384
aF4.100717562670239
aF4.097689696082405
aF4.09467279008963
aF4.091666749402829
aF4.088671480373394
aF4.085686890955503
aF4.082712890669489
aF4.079749390566089
aF4.07679630319169
aF4.073853542554514
aF4.070921024091577
aF4.0679986646366615
aF4.0650863823889924
aF4.0621840968828025
aF4.059291728957646
aF4.056409200729522
aF4.053536435562691
aF4.0506733580422285
aF4.047819893947322
aF4.044975970225177
aF4.042141514965665
aF4.03931645737655
aF4.03650072775938
aF4.033694257485955
aF4.0308969789754645
aF4.02810882567204
aF4.025329732023068
aF4.022559633457878
aF4.019798466367048
aF4.0170461680822305
aF4.014302676856381
aF4.011567931844586
aF4.008841873085323
aF4.006124441482139
aF4.003415578785827
aF4.000715227577012
aF3.9980233312491675
aF3.99533983399205
aF3.992664680775529
aF3.9899978173337445
aF3.9873391901497883
aF3.98468874644061
aF3.982046434142334
aF3.979412201895953
aF3.9767859990333276
aF3.9741677755635094
aF3.9715574821594233
aF3.968955070144825
aF3.966360491481595
aF3.963773698757292
aF3.9611946451730273
aF3.958623284531625
aF3.9560595712260263
aF3.9535034602279673
aF3.9509549070769667
aF3.9484138678694474
aF3.945880299248288
aF3.9433541583924328
aF3.94083540300682
aF3.9383239913125854
aF3.9358198820373684
aF3.9333230344059498
aF3.9308334081310283
aF3.9283509634042355
aF3.92587566088733
aF3.9234074617036194
aF3.920946327429561
aa(lp9
F215.37633621446264
aF206.20619361300197
aF189.43614223751052
aF167.19903358808
aF141.89273975111018
aF115.89881790815194
aF91.34501549439389
aF69.92948286390504
aF52.814487712740224
aF40.58873126305438
aF33.290921060531375
aF30.483111598134734
aF31.360041274694368
aF34.879730673544636
aF39.90060185554427
aF45.311238877538344
aF50.14072030586353
aF53.640288721211434
aF55.33086791424746
aF55.01521978361602
aF52.757761975984046
aF48.83859712783799
aF43.69061356205941
aF37.82934824126383
aF31.78470827880825
aF26.041938211877095
aF20.996851983657006
aF16.92779499775297
aF13.984456665371336
aF12.19177992894111
aF11.465934727992208
aF11.63864472954672
aF12.486009130487254
aF13.75823026672532
aF15.207217345185828
aF16.60976843456782
aF17.784835655957576
aF18.604171014623237
aF18.99637024211452
aF18.944934111203516
aF18.481421104220196
aF17.675056808243827
aF16.620292773430542
aF15.423782658448843
aF14.192089281957305
aF13.021183858272032
aF11.988483916374122
aF11.147835665168039
aF10.527513800510919
aF10.131015757872202
aF9.940190208737663
aF9.920075523208336
aF10.024739429440238
aF10.203405031982031
aF10.406212635974756
aF10.589087614630062
aF10.717343793266036
aF10.767829189971327
aF10.72959608875585
aF10.60323212781596
aF10.399109241658554
aF10.134884180680993
aF9.832615164857684
aF9.515846868799736
aF9.206967846949345
aF8.92507121656704
aF8.684462765160646
aF8.493872139745484
aF8.35634223494639
aF8.269706604760966
aF8.227519029741229
aF8.22027475845612
aF8.236758409487056
aF8.265366177295641
aF8.29527572035504
aF8.317371241565388
aF8.324869115551522
aF8.313626736081556
aF8.28215056917118
aF8.231346165698628
aF8.164071584175193
aF8.084565752652965
aF7.997825084901818
aF7.908996197171431
aF7.822841399600536
aF7.743318615705389
aF7.673300466212389
aF7.614440301200004
aF7.56717759269237
aF7.530862563439987
aF7.5039710513293745
aF7.484375763813081
aF7.469639200767105
aF7.457296179647276
aF7.445099357465027
aF7.431208500057889
aF7.4143125185040875
aF7.393681528007026
aF7.369153564682706
aF7.341066492797616
aF7.310149655288183
aF7.277391814385156
aF7.243901975198298
aF7.210778050613431
aF7.178995413557843
aF7.1493236697522615
aF7.122275961729093
aF7.098091235322343
aF7.0767465349278424
aF7.057993808660015
aF7.041414046014724
aF7.0264808702736214
aF7.012625895930678
aF6.9992990893138245
aF6.986018837767226
aF6.97240821464497
aF6.958215801239188
aF6.943321193581575
aF6.927726822517289
aF6.911538839744783
aF6.894940513775507
aF6.878161831881259
aF6.861448854930658
aF6.84503589339083
aF6.829122858612296
aF6.813859297570861
aF6.799335743571181
aF6.785582200677916
aF6.772572897801019
aF6.7602359482420695
aF6.748466256189193
aF6.737139923497709
aF6.726128508002559
aF6.715311732784851
aF6.70458759850062
aF6.6938792582665245
aF6.6831384283613176
aF6.672345485927359
aF6.661506714216725
aF6.65064937545602
aF6.639815411827602
aF6.62905459835898
aF6.618417909119105
aF6.607951728458294
aF6.597693364653274
aF6.587668128057745
aF6.577888042232219
aF6.568352083677886
aF6.559047708039541
aF6.5499533267281755
aF6.541041350954437
aF6.5322814181291715
aF6.523643452255665
aF6.515100276115676
aF6.506629577922517
aF6.498215127552513
aF6.489847227184091
aF6.481522459627126
aF6.473242858612144
aF6.465014665249225
aF6.45684685277987
aF6.448749598983399
aF6.440732865373059
aF6.432805209116771
aF6.424972912587821
aF6.417239471782654
aF6.409605443257465
aF6.40206861357685
aF6.394624428249041
aF6.387266600211577
aF6.3799878113848205
aF6.372780423813034
aF6.365637127817242
aF6.358551471179734
aF6.3515182332121025
aF6.344533628183331
aF6.337595341835714
aF6.330702420862087
aF6.323855047089195
aF6.317054235125449
aF6.310301494377869
aF6.30359849409748
aF6.2969467643220955
aF6.290347457333695
aF6.283801184708155
aF6.277307935343507
aF6.270867071001369
aF6.264477388647764
aF6.258137233732617
aF6.251844645715781
aF6.245597516586313
aF6.239393744563813
aF6.23323136818677
aF6.227108670058694
aF6.221024244082328
aF6.214977024540424
aF6.208966279430451
aF6.202991573693503
aF6.197052710188478
aF6.191149657375206
aF6.185282472728732
aF6.179451230056752
aF6.173655957345808
aF6.167896589772635
aF6.162172940347652
aF6.156484688548501
aF6.150831385456294
aF6.14521247247276
aF6.139627309755799
aF6.134075210091941
aF6.128555473990053
aF6.123067422260313
aF6.117610423126212
aF6.1121839118855235
aF6.1067874021650255
aF6.101420488792071
aF6.096082843143006
aF6.090774202460929
aF6.085494355027908
aF6.080243123225863
aF6.075020346444019
aF6.0698258655297135
aF6.064659510085806
aF6.059521089448902
aF6.0544103876979865
aF6.049327162590572
aF6.04427114794705
aF6.039242058727808
aF6.034239597886531
aF6.029263464036668
aF6.024313359024517
aF6.01938899464119
aF6.014490097902003
aF6.009616414547167
aF6.0047677106454955
aF5.999943772390879
aF5.99514440434937
aF5.990369426534835
aF5.9856186707548495
aF5.980891976680078
aF5.976189188053939
aF5.97151014938738
aF5.966854703386347
aF5.962222689251766
aF5.957613941885377
aF5.953028291939869
aF5.948465566576469
aF5.943925590742304
aF5.939408188755085
aF5.934913185982204
aF5.930440410423177
aF5.9259896940407355
aF5.921560873734544
aF5.917153791901669
aF5.912768296578491
aF5.908404241201458
aF5.904061484057392
aF5.89973988751523
aF5.895439317140905
aF5.891159640793939
aF5.886900727792975
aF5.8826624482181895
aF5.878444672395567
aF5.874247270583705
aF5.870070112860707
aF5.865913069189328
aF5.861776009623952
aF5.8576588046141955
aF5.853561325356782
aF5.849483444149563
aF5.845425034708127
aF5.841385972414852
aF5.837366134481631
aF5.8333654000186845
aF5.829383650012914
aF5.8254207672275236
aF5.821476636041487
aF5.817551142250292
aF5.813644172851245
aF5.809755615834059
aF5.805885359994763
aF5.802033294785886
aF5.798199310210526
aF5.794383296762517
aF5.790585145410297
aF5.786804747617604
aF5.783041995392207
aF5.779296781351652
aF5.775568998795714
aF5.7718585417752735
aF5.768165305150054
aF5.764489184629179
aF5.760830076791946
aF5.757187879087599
aF5.753562489816485
aF5.74995380809534
aF5.746361733811652
aF5.74278616757182
aF5.739227010648458
aF5.735684164930926
aa.