(lp0
(lp1
I10
aF0.01
aa(lp2
I25
aF0.01
aa(lp3
I50
aF0.01
aa(lp4
I100
aF0.01
aa(lp5
I10
aF0.01
aa(lp6
I25
aF0.001
aa(lp7
I50
aF0.001
aa(lp8
I100
aF0.001
aa(lp9
I10
aF0.01
aa(lp10
I25
aF0.0001
aa(lp11
I50
aF0.0001
aa(lp12
I100
aF0.0001
aa.