(lp0
(lp1
F0.1
aF0.1
aa(lp2
F0.05
aF0.1
aa(lp3
F0.03
aF0.1
aa(lp4
F0.01
aF0.1
aa(lp5
F0.1
aF0.3
aa(lp6
F0.05
aF0.3
aa(lp7
F0.03
aF0.3
aa(lp8
F0.01
aF0.3
aa(lp9
F0.1
aF0.6
aa(lp10
F0.05
aF0.6
aa(lp11
F0.03
aF0.6
aa(lp12
F0.01
aF0.6
aa(lp13
F0.1
aF0.8
aa(lp14
F0.05
aF0.8
aa(lp15
F0.03
aF0.8
aa(lp16
F0.01
aF0.8
aa.