(lp0
(lp1
(lp2
(lp3
I10
aF0.01
aF0.1
aF0.01
aacnumpy.core.multiarray
scalar
p4
(cnumpy
dtype
p5
(S'f8'
p6
I0
I1
tp7
Rp8
(I3
S'<'
p9
NNNI-1
I-1
I0
tp10
bS'pk\xf3\xa3al\xf5?'
p11
tp12
Rp13
acnumpy.core.multiarray
_reconstruct
p14
(cnumpy
ndarray
p15
(I0
tp16
S'b'
p17
tp18
Rp19
(I1
(tg8
I00
S'@\xcc\xc6\x86\x8c\xa6\x07@'
p20
tp21
bag4
(g8
S'\x84}\x89\xf8\xaaG\xf7?'
p22
tp23
Rp24
ag14
(g15
(I0
tp25
g17
tp26
Rp27
(I1
(tg8
I00
S'|sm2:\x95\n@'
p28
tp29
baa(lp30
(lp31
I10
aF0.01
aF0.3
aF0.01
aag4
(g8
S'\xc5\x17\xd7-1\x99\xf5?'
p32
tp33
Rp34
ag14
(g15
(I0
tp35
g17
tp36
Rp37
(I1
(tg8
I00
S'\xae\xa3\x91\xf5\xd5\x8e\x07@'
p38
tp39
bag4
(g8
S'~&\xdfj\xdc\x08\xf7?'
p40
tp41
Rp42
ag14
(g15
(I0
tp43
g17
tp44
Rp45
(I1
(tg8
I00
S'\x06I92\x13\x1c\n@'
p46
tp47
baa(lp48
(lp49
I10
aF0.01
aF0.6
aF0.01
aag4
(g8
S'\xf7\x90@_}s\xf5?'
p50
tp51
Rp52
ag14
(g15
(I0
tp53
g17
tp54
Rp55
(I1
(tg8
I00
S'N\xeb<\xa5v\x97\x07@'
p56
tp57
bag4
(g8
S'\xdaRJ\xcc!`\xf7?'
p58
tp59
Rp60
ag14
(g15
(I0
tp61
g17
tp62
Rp63
(I1
(tg8
I00
S'\x1a,y/r\x9e\n@'
p64
tp65
baa(lp66
(lp67
I10
aF0.01
aF0.8
aF0.01
aag4
(g8
S'%y8\xaabg\xf5?'
p68
tp69
Rp70
ag14
(g15
(I0
tp71
g17
tp72
Rp73
(I1
(tg8
I00
S'\xf6<l\xc8Z\xd7\x07@'
p74
tp75
bag4
(g8
S'\x112"\x88\xea6\xf7?'
p76
tp77
Rp78
ag14
(g15
(I0
tp79
g17
tp80
Rp81
(I1
(tg8
I00
S'\xa6\xf6\xe7\xb0\xdd\xbd\n@'
p82
tp83
baa(lp84
(lp85
I10
aF0.01
aF0.1
aF0.001
aag4
(g8
S'H#4\xc9BJ\xf3?'
p86
tp87
Rp88
ag14
(g15
(I0
tp89
g17
tp90
Rp91
(I1
(tg8
I00
S']au\xb9\x0eQ\xf6?'
p92
tp93
bag4
(g8
S'7\xdd\x91MMp\xf6?'
p94
tp95
Rp96
ag14
(g15
(I0
tp97
g17
tp98
Rp99
(I1
(tg8
I00
S'\xa0\xe5E^z\x95\xfe?'
p100
tp101
baa(lp102
(lp103
I10
aF0.01
aF0.3
aF0.001
aag4
(g8
S'\xac\xbfk\xc1\xaa\x8a\xf3?'
p104
tp105
Rp106
ag14
(g15
(I0
tp107
g17
tp108
Rp109
(I1
(tg8
I00
S'\xa3\xd0\xc2%`\xe2\xf6?'
p110
tp111
bag4
(g8
S'\x95\xdf\xd0\xa9{\xc9\xf5?'
p112
tp113
Rp114
ag14
(g15
(I0
tp115
g17
tp116
Rp117
(I1
(tg8
I00
S'\xa9r\xd5\x99\xfe\xf8\xfc?'
p118
tp119
baa(lp120
(lp121
I10
aF0.01
aF0.6
aF0.001
aag4
(g8
S'\xe5\xdaz\x91\xdd;\xf3?'
p122
tp123
Rp124
ag14
(g15
(I0
tp125
g17
tp126
Rp127
(I1
(tg8
I00
S'\x13h\x84\xadRV\xf6?'
p128
tp129
bag4
(g8
S'\xc4\x92B0x\x97\xf5?'
p130
tp131
Rp132
ag14
(g15
(I0
tp133
g17
tp134
Rp135
(I1
(tg8
I00
S'\x9e\xfd%v\x9d\x03\xfd?'
p136
tp137
baa(lp138
(lp139
I10
aF0.01
aF0.8
aF0.001
aag4
(g8
S':\x02{V\xd4\xc1\xf3?'
p140
tp141
Rp142
ag14
(g15
(I0
tp143
g17
tp144
Rp145
(I1
(tg8
I00
S'\xd9\x8f\xa0-|\xdf\xf6?'
p146
tp147
bag4
(g8
S'\xe2\x8c\x07\xf4\xedu\xf6?'
p148
tp149
Rp150
ag14
(g15
(I0
tp151
g17
tp152
Rp153
(I1
(tg8
I00
S'`*\x94\xc4Z\xfb\xfd?'
p154
tp155
baa(lp156
(lp157
I10
aF0.01
aF0.1
aF0.0001
aag4
(g8
S'-11\x94nQ\xf3?'
p158
tp159
Rp160
ag14
(g15
(I0
tp161
g17
tp162
Rp163
(I1
(tg8
I00
S'$\x9e\x03\xcb\x8dr\xf3?'
p164
tp165
bag4
(g8
S'\xd4\x85\xc0\xdfR%\xf6?'
p166
tp167
Rp168
ag14
(g15
(I0
tp169
g17
tp170
Rp171
(I1
(tg8
I00
S'\xe2\xbfwQ\xb1\x0f\xfb?'
p172
tp173
baa(lp174
(lp175
I10
aF0.01
aF0.3
aF0.0001
aag4
(g8
S'\x8b\x1a\x9e\x04\xa2\x8e\xf3?'
p176
tp177
Rp178
ag14
(g15
(I0
tp179
g17
tp180
Rp181
(I1
(tg8
I00
S'\xb3\x97\xc7\x83\x9d\xf2\xf3?'
p182
tp183
bag4
(g8
S"\xc9I\xe5[6'\xf6?"
p184
tp185
Rp186
ag14
(g15
(I0
tp187
g17
tp188
Rp189
(I1
(tg8
I00
S'\x8aR\xda\x101\xce\xfa?'
p190
tp191
baa(lp192
(lp193
I10
aF0.01
aF0.6
aF0.0001
aag4
(g8
S'\xb2\xfe\x9d\x8a@5\xf3?'
p194
tp195
Rp196
ag14
(g15
(I0
tp197
g17
tp198
Rp199
(I1
(tg8
I00
S'=.U\x90\n/\xf3?'
p200
tp201
bag4
(g8
S'\x13l\xa1\xc6\x9b|\xf5?'
p202
tp203
Rp204
ag14
(g15
(I0
tp205
g17
tp206
Rp207
(I1
(tg8
I00
S'*\xcd~\x038\xcf\xf9?'
p208
tp209
baa(lp210
(lp211
I10
aF0.01
aF0.8
aF0.0001
aag4
(g8
S'\x02YY\xfak\xfb\xf3?'
p212
tp213
Rp214
ag14
(g15
(I0
tp215
g17
tp216
Rp217
(I1
(tg8
I00
S'\x95z`\x1f\xc4 \xf4?'
p218
tp219
bag4
(g8
S'\x9fN\x1e\x12\xab$\xf7?'
p220
tp221
Rp222
ag14
(g15
(I0
tp223
g17
tp224
Rp225
(I1
(tg8
I00
S')-\x1eP\xae\x08\xfc?'
p226
tp227
baa(lp228
(lp229
I10
aF0.03
aF0.1
aF0.01
aag4
(g8
S'5"\xcc\x85\x1f<\xf5?'
p230
tp231
Rp232
ag14
(g15
(I0
tp233
g17
tp234
Rp235
(I1
(tg8
I00
S'\xa0s\xd6\xf7\xff\x88\x07@'
p236
tp237
bag4
(g8
S'\x03yv\xbfA\xec\xf6?'
p238
tp239
Rp240
ag14
(g15
(I0
tp241
g17
tp242
Rp243
(I1
(tg8
I00
S'2\xe1\x9b\xcf\xc3U\n@'
p244
tp245
baa(lp246
(lp247
I10
aF0.03
aF0.3
aF0.01
aag4
(g8
S'\xcc\x82\x0fA,q\xf5?'
p248
tp249
Rp250
ag14
(g15
(I0
tp251
g17
tp252
Rp253
(I1
(tg8
I00
S'<GYKS\x08\x08@'
p254
tp255
bag4
(g8
S'\x04\xc5z,\xb0>\xf7?'
p256
tp257
Rp258
ag14
(g15
(I0
tp259
g17
tp260
Rp261
(I1
(tg8
I00
S'\x90%U\xae\xcb\xe4\n@'
p262
tp263
baa(lp264
(lp265
I10
aF0.03
aF0.6
aF0.01
aag4
(g8
S'\xa6D\xb4\x91\xfa\x1f\xf5?'
p266
tp267
Rp268
ag14
(g15
(I0
tp269
g17
tp270
Rp271
(I1
(tg8
I00
S'\x84U\xb8\xac)s\x07@'
p272
tp273
bag4
(g8
S'Q%0V\xd8\xff\xf6?'
p274
tp275
Rp276
ag14
(g15
(I0
tp277
g17
tp278
Rp279
(I1
(tg8
I00
S'\xe76\x18\x14\x9f[\n@'
p280
tp281
baa(lp282
(lp283
I10
aF0.03
aF0.8
aF0.01
aag4
(g8
S'\xf0\xb9\x8e\x0ctr\xf5?'
p284
tp285
Rp286
ag14
(g15
(I0
tp287
g17
tp288
Rp289
(I1
(tg8
I00
S'\xaa-5\xadW\x0f\x08@'
p290
tp291
bag4
(g8
S'\x9e\x04L\xa7\x06E\xf7?'
p292
tp293
Rp294
ag14
(g15
(I0
tp295
g17
tp296
Rp297
(I1
(tg8
I00
S'R\xc0\xb5\x95\x99\xe9\n@'
p298
tp299
baa(lp300
(lp301
I10
aF0.03
aF0.1
aF0.001
aag4
(g8
S'9F4\xf5+\x94\xf2?'
p302
tp303
Rp304
ag14
(g15
(I0
tp305
g17
tp306
Rp307
(I1
(tg8
I00
S'\xdd\xad1\xe0\x17\x8b\xf5?'
p308
tp309
bag4
(g8
S'\x8c\xac"\x15\xc5\x90\xf5?'
p310
tp311
Rp312
ag14
(g15
(I0
tp313
g17
tp314
Rp315
(I1
(tg8
I00
S'i\x175\xee\x12\x80\xfd?'
p316
tp317
baa(lp318
(lp319
I10
aF0.03
aF0.3
aF0.001
aag4
(g8
S'\xa6\x8c\xb0;f\x14\xf2?'
p320
tp321
Rp322
ag14
(g15
(I0
tp323
g17
tp324
Rp325
(I1
(tg8
I00
S'\x8aK\xea\x92\xec\xb0\xf4?'
p326
tp327
bag4
(g8
S'02Z\xa5\xcb\xb1\xf5?'
p328
tp329
Rp330
ag14
(g15
(I0
tp331
g17
tp332
Rp333
(I1
(tg8
I00
S'\x92\x9d\x0e\xae\x8d\xc1\xfd?'
p334
tp335
baa(lp336
(lp337
I10
aF0.03
aF0.6
aF0.001
aag4
(g8
S'\x1c+\xbb\xcd\x84\xce\xf1?'
p338
tp339
Rp340
ag14
(g15
(I0
tp341
g17
tp342
Rp343
(I1
(tg8
I00
S'\xae\xc9\x11\xf3\xa7v\xf4?'
p344
tp345
bag4
(g8
S'k\x0e\xb09E^\xf5?'
p346
tp347
Rp348
ag14
(g15
(I0
tp349
g17
tp350
Rp351
(I1
(tg8
I00
S'\xa0\xb1\xf63\xec\xfc\xfc?'
p352
tp353
baa(lp354
(lp355
I10
aF0.03
aF0.8
aF0.001
aag4
(g8
S'-C\x95\xfej1\xf2?'
p356
tp357
Rp358
ag14
(g15
(I0
tp359
g17
tp360
Rp361
(I1
(tg8
I00
S'OA?\x14\x98\x10\xf5?'
p362
tp363
bag4
(g8
S'\xc3\xa0\xc2jG\xd3\xf5?'
p364
tp365
Rp366
ag14
(g15
(I0
tp367
g17
tp368
Rp369
(I1
(tg8
I00
S'\x8c\x9c#\xba\xcd\xfb\xfd?'
p370
tp371
baa(lp372
(lp373
I10
aF0.03
aF0.1
aF0.0001
aag4
(g8
S'3(\xbc\xd5\xb2\xa0\xf1?'
p374
tp375
Rp376
ag14
(g15
(I0
tp377
g17
tp378
Rp379
(I1
(tg8
I00
S'2\x12\xf7\xf6\xc1\x8a\xf0?'
p380
tp381
bag4
(g8
S'\x93\xc6\xdf\xd5\xcc7\xf5?'
p382
tp383
Rp384
ag14
(g15
(I0
tp385
g17
tp386
Rp387
(I1
(tg8
I00
S'kC\xc2\x1b\x1b\x19\xf9?'
p388
tp389
baa(lp390
(lp391
I10
aF0.03
aF0.3
aF0.0001
aag4
(g8
S'\xb7\xf9\xe1\xaf\xa8\xba\xf1?'
p392
tp393
Rp394
ag14
(g15
(I0
tp395
g17
tp396
Rp397
(I1
(tg8
I00
S'\x93\x00\xfa\x19\xff\x16\xf1?'
p398
tp399
bag4
(g8
S'\xbch\xf5\x13P\xd3\xf5?'
p400
tp401
Rp402
ag14
(g15
(I0
tp403
g17
tp404
Rp405
(I1
(tg8
I00
S'\x9a\x9b\xcf9\xc9\xe8\xf9?'
p406
tp407
baa(lp408
(lp409
I10
aF0.03
aF0.6
aF0.0001
aag4
(g8
S'\xc0l\x134\xf4\xb6\xf1?'
p410
tp411
Rp412
ag14
(g15
(I0
tp413
g17
tp414
Rp415
(I1
(tg8
I00
S'\xf1\x85\xa0\x01\xcb\xda\xf0?'
p416
tp417
bag4
(g8
S'-RT\xe2\xeaG\xf5?'
p418
tp419
Rp420
ag14
(g15
(I0
tp421
g17
tp422
Rp423
(I1
(tg8
I00
S'\x89\x1e\x91\x8b\x1ds\xf9?'
p424
tp425
baa(lp426
(lp427
I10
aF0.03
aF0.8
aF0.0001
aag4
(g8
S'N\xa2*\xd4\x94\xe4\xf1?'
p428
tp429
Rp430
ag14
(g15
(I0
tp431
g17
tp432
Rp433
(I1
(tg8
I00
S'\xef\x18\xd5\xabM\xdc\xf0?'
p434
tp435
bag4
(g8
S'\xbfw\xcdej\x1f\xf6?'
p436
tp437
Rp438
ag14
(g15
(I0
tp439
g17
tp440
Rp441
(I1
(tg8
I00
S'\x9dm\x05A\xd8\xcd\xfa?'
p442
tp443
baa(lp444
(lp445
I10
aF0.05
aF0.1
aF0.01
aag4
(g8
S'\xd0\\pb\xaf8\xf5?'
p446
tp447
Rp448
ag14
(g15
(I0
tp449
g17
tp450
Rp451
(I1
(tg8
I00
S'\x8eq\xe5g\x8b?\x07@'
p452
tp453
bag4
(g8
S'l\x86\xae\x9b\x00\xb7\xf6?'
p454
tp455
Rp456
ag14
(g15
(I0
tp457
g17
tp458
Rp459
(I1
(tg8
I00
S'vL\xd0\x8b\xa3\xcb\t@'
p460
tp461
baa(lp462
(lp463
I10
aF0.05
aF0.3
aF0.01
aag4
(g8
S'\x9b\xbf,\xd5\xc4/\xf5?'
p464
tp465
Rp466
ag14
(g15
(I0
tp467
g17
tp468
Rp469
(I1
(tg8
I00
S'\xc4\xc6\x0f\xf7V~\x07@'
p470
tp471
bag4
(g8
S'\xdd.\xebk\xf6\xf7\xf6?'
p472
tp473
Rp474
ag14
(g15
(I0
tp475
g17
tp476
Rp477
(I1
(tg8
I00
S'\xcaV+0\xa1Y\n@'
p478
tp479
baa(lp480
(lp481
I10
aF0.05
aF0.6
aF0.01
aag4
(g8
S'\xb2p\x1c\xad\xbf5\xf5?'
p482
tp483
Rp484
ag14
(g15
(I0
tp485
g17
tp486
Rp487
(I1
(tg8
I00
S'\x80\xef\xeeH0\x84\x07@'
p488
tp489
bag4
(g8
S'y\x03\xads\x19\xf1\xf6?'
p490
tp491
Rp492
ag14
(g15
(I0
tp493
g17
tp494
Rp495
(I1
(tg8
I00
S'\xdd\xda\x17i\x85W\n@'
p496
tp497
baa(lp498
(lp499
I10
aF0.05
aF0.1
aF0.001
aag4
(g8
S'\x9d\xd2\xef\xaf\x9f\xd1\xf1?'
p500
tp501
Rp502
ag14
(g15
(I0
tp503
g17
tp504
Rp505
(I1
(tg8
I00
S'\x9cbA\xcew\xd1\xf4?'
p506
tp507
bag4
(g8
S'T\xfegs(\x8b\xf5?'
p508
tp509
Rp510
ag14
(g15
(I0
tp511
g17
tp512
Rp513
(I1
(tg8
I00
S')C\x8a\xa7\x1dV\xfd?'
p514
tp515
baa(lp516
(lp517
I10
aF0.05
aF0.3
aF0.001
aag4
(g8
S'p\xfd\x8c(\xe6\x8f\xf1?'
p518
tp519
Rp520
ag14
(g15
(I0
tp521
g17
tp522
Rp523
(I1
(tg8
I00
S'"\x9e\xd7\xa5\x87W\xf4?'
p524
tp525
bag4
(g8
S'\xf5\x9bQ\xda6\x85\xf5?'
p526
tp527
Rp528
ag14
(g15
(I0
tp529
g17
tp530
Rp531
(I1
(tg8
I00
S'0\xbe\xe1jR\xae\xfd?'
p532
tp533
baa(lp534
(lp535
I10
aF0.05
aF0.6
aF0.001
aag4
(g8
S'\xe6\xd8\xde\xca\xd1i\xf1?'
p536
tp537
Rp538
ag14
(g15
(I0
tp539
g17
tp540
Rp541
(I1
(tg8
I00
S'\xb4L\x83i\xa4;\xf4?'
p542
tp543
bag4
(g8
S'\xd88\xd9\xa9kM\xf5?'
p544
tp545
Rp546
ag14
(g15
(I0
tp547
g17
tp548
Rp549
(I1
(tg8
I00
S'u\xcd\x88\xa6M\xf4\xfc?'
p550
tp551
baa(lp552
(lp553
I10
aF0.05
aF0.1
aF0.0001
aag4
(g8
S"'\xf5\xb3S\xbf\x1b\xf1?"
p554
tp555
Rp556
ag14
(g15
(I0
tp557
g17
tp558
Rp559
(I1
(tg8
I00
S'\x13K\x1e\x0b\xf6,\xf0?'
p560
tp561
bag4
(g8
S'"\xbe_k\x93\xff\xf4?'
p562
tp563
Rp564
ag14
(g15
(I0
tp565
g17
tp566
Rp567
(I1
(tg8
I00
S'b8\xb6X\x0b\xa7\xf8?'
p568
tp569
baa(lp570
(lp571
I10
aF0.05
aF0.3
aF0.0001
aag4
(g8
S'\xb9\x15v8\xe0G\xf1?'
p572
tp573
Rp574
ag14
(g15
(I0
tp575
g17
tp576
Rp577
(I1
(tg8
I00
S'7\x96\xa2D\x83\x00\xf0?'
p578
tp579
bag4
(g8
S'\xe3a=ia-\xf5?'
p580
tp581
Rp582
ag14
(g15
(I0
tp583
g17
tp584
Rp585
(I1
(tg8
I00
S'\x10\xc8\xdc\x028p\xf9?'
p586
tp587
baa(lp588
(lp589
I10
aF0.05
aF0.6
aF0.0001
aag4
(g8
S'\xfa\xbf\xc9\xb33Z\xf1?'
p590
tp591
Rp592
ag14
(g15
(I0
tp593
g17
tp594
Rp595
(I1
(tg8
I00
S' \xa2\xc2\x8f\xca[\xf0?'
p596
tp597
bag4
(g8
S'ri\x19\xd8\x03p\xf5?'
p598
tp599
Rp600
ag14
(g15
(I0
tp601
g17
tp602
Rp603
(I1
(tg8
I00
S'\xe6?\x8b\xf4\x19\x1a\xfa?'
p604
tp605
baa(lp606
(lp607
I10
aF0.05
aF0.8
aF0.0001
aag4
(g8
S'\xbcXB3D\x05\xf1?'
p608
tp609
Rp610
ag14
(g15
(I0
tp611
g17
tp612
Rp613
(I1
(tg8
I00
S'\x85\x13:t\xa3O\xef?'
p614
tp615
bag4
(g8
S'\t\x9e\xfc\xfc\x18q\xf5?'
p616
tp617
Rp618
ag14
(g15
(I0
tp619
g17
tp620
Rp621
(I1
(tg8
I00
S'\xbaFe\xc7\xd3h\xfa?'
p622
tp623
baa(lp624
(lp625
I10
aF0.08
aF0.1
aF0.01
aag4
(g8
S'\xb2+\x08T\x86"\xf5?'
p626
tp627
Rp628
ag14
(g15
(I0
tp629
g17
tp630
Rp631
(I1
(tg8
I00
S'\x8ac]/\x85j\x07@'
p632
tp633
bag4
(g8
S'f\xdb\\e\xda\xf6\xf6?'
p634
tp635
Rp636
ag14
(g15
(I0
tp637
g17
tp638
Rp639
(I1
(tg8
I00
S'\x80b<\xf3\xb1=\n@'
p640
tp641
baa(lp642
(lp643
I10
aF0.08
aF0.3
aF0.01
aag4
(g8
S'\x1fE\x80S\xdbR\xf5?'
p644
tp645
Rp646
ag14
(g15
(I0
tp647
g17
tp648
Rp649
(I1
(tg8
I00
S'dxj\xc9\x9b\xfd\x07@'
p650
tp651
bag4
(g8
S'\x0c\xe1EHRa\xf7?'
p652
tp653
Rp654
ag14
(g15
(I0
tp655
g17
tp656
Rp657
(I1
(tg8
I00
S'\xe0\xcbu>\\\x0e\x0b@'
p658
tp659
baa(lp660
(lp661
I10
aF0.08
aF0.6
aF0.01
aag4
(g8
S'\xd8\xff\xb79$!\xf5?'
p662
tp663
Rp664
ag14
(g15
(I0
tp665
g17
tp666
Rp667
(I1
(tg8
I00
S'\xc3\xb0\xec\x06\xf8i\x07@'
p668
tp669
bag4
(g8
S'\xa5Rt\xdbv\xf6\xf6?'
p670
tp671
Rp672
ag14
(g15
(I0
tp673
g17
tp674
Rp675
(I1
(tg8
I00
S'\x1f"\xbd\x95f=\n@'
p676
tp677
baa(lp678
(lp679
I10
aF0.08
aF0.1
aF0.001
aag4
(g8
S"\x9dE\x1e\xc8'-\xf1?"
p680
tp681
Rp682
ag14
(g15
(I0
tp683
g17
tp684
Rp685
(I1
(tg8
I00
S'\xd2\xa2gVy\xe7\xf3?'
p686
tp687
bag4
(g8
S'\r\xce\xe0\x16\xadC\xf5?'
p688
tp689
Rp690
ag14
(g15
(I0
tp691
g17
tp692
Rp693
(I1
(tg8
I00
S'\xce\x99td\x1ee\xfd?'
p694
tp695
baa(lp696
(lp697
I10
aF0.08
aF0.3
aF0.001
aag4
(g8
S'\xd1\xab\xb8\x8d\x03\x99\xf1?'
p698
tp699
Rp700
ag14
(g15
(I0
tp701
g17
tp702
Rp703
(I1
(tg8
I00
S'\xcb\xa3\x80\xdf\xd2\x82\xf4?'
p704
tp705
bag4
(g8
S'\x8d\xe7\x11($\xcf\xf5?'
p706
tp707
Rp708
ag14
(g15
(I0
tp709
g17
tp710
Rp711
(I1
(tg8
I00
S'\xfe\xf6g\xf4\xb6\x14\xfe?'
p712
tp713
baa(lp714
(lp715
I10
aF0.08
aF0.6
aF0.001
aag4
(g8
S'\xfd\xf5dN\xa9\x10\xf1?'
p716
tp717
Rp718
ag14
(g15
(I0
tp719
g17
tp720
Rp721
(I1
(tg8
I00
S'\xcc\xc5%\xa0\xd4\xc8\xf3?'
p722
tp723
bag4
(g8
S'#\xbc\x01\xab\xa6\xaf\xf4?'
p724
tp725
Rp726
ag14
(g15
(I0
tp727
g17
tp728
Rp729
(I1
(tg8
I00
S'f\x18P\x15\xfc\xa0\xfc?'
p730
tp731
baa(lp732
(lp733
I10
aF0.08
aF0.1
aF0.0001
aag4
(g8
S'\x01\x92kg=\xe0\xf0?'
p734
tp735
Rp736
ag14
(g15
(I0
tp737
g17
tp738
Rp739
(I1
(tg8
I00
S'\xa3\xac\x1b2\xc6\xd3\xef?'
p740
tp741
bag4
(g8
S'\xd8\x95\xad=\xb8=\xf5?'
p742
tp743
Rp744
ag14
(g15
(I0
tp745
g17
tp746
Rp747
(I1
(tg8
I00
S'W\x94\xd4-,\xca\xf9?'
p748
tp749
baa(lp750
(lp751
I10
aF0.08
aF0.3
aF0.0001
aag4
(g8
S'\xcd\x11\x9a\x81\xfc\x8b\xf0?'
p752
tp753
Rp754
ag14
(g15
(I0
tp755
g17
tp756
Rp757
(I1
(tg8
I00
S'\x84N\x08\xdcd\xbf\xee?'
p758
tp759
bag4
(g8
S'\xa7\xbf5D\xcd/\xf6?'
p760
tp761
Rp762
ag14
(g15
(I0
tp763
g17
tp764
Rp765
(I1
(tg8
I00
S'\x0c\x8c(\xd1;\x91\xfb?'
p766
tp767
baa(lp768
(lp769
I10
aF0.08
aF0.6
aF0.0001
aag4
(g8
S'C}%\xe7\xd4\x92\xf0?'
p770
tp771
Rp772
ag14
(g15
(I0
tp773
g17
tp774
Rp775
(I1
(tg8
I00
S'\xe8\x0c\x1c\x8d?\xb3\xed?'
p776
tp777
bag4
(g8
S'\x19\xc5\xee\x91\xe14\xf6?'
p778
tp779
Rp780
ag14
(g15
(I0
tp781
g17
tp782
Rp783
(I1
(tg8
I00
S'<\xee-\xf5\xfb\xed\xfb?'
p784
tp785
baa(lp786
(lp787
I10
aF0.08
aF0.8
aF0.0001
aag4
(g8
S'9,\nc\x85\xec\xf0?'
p788
tp789
Rp790
ag14
(g15
(I0
tp791
g17
tp792
Rp793
(I1
(tg8
I00
S'\rZ\xa4C\x98\xb1\xee?'
p794
tp795
bag4
(g8
S'HL[\x015\x92\xf5?'
p796
tp797
Rp798
ag14
(g15
(I0
tp799
g17
tp800
Rp801
(I1
(tg8
I00
S'\xb6\x990\x8f\xad\x92\xf9?'
p802
tp803
baaa(lp804
(lp805
g3
ag4
(g8
S'\xc0\xde\x85\x06\xf6\xdb\xf5?'
p806
tp807
Rp808
ag14
(g15
(I0
tp809
g17
tp810
Rp811
(I1
(tg8
I00
S'Q\x89\x88_W\xde\x07@'
p812
tp813
bag4
(g8
S'\xb4\xe5\x8b\xdb\xe8=\xf6?'
p814
tp815
Rp816
ag14
(g15
(I0
tp817
g17
tp818
Rp819
(I1
(tg8
I00
S'z\xfb\x9a\xa9#+\x08@'
p820
tp821
baa(lp822
g31
ag4
(g8
S'\xe6\xc7\x9f\xc5\xb7\xde\xf5?'
p823
tp824
Rp825
ag14
(g15
(I0
tp826
g17
tp827
Rp828
(I1
(tg8
I00
S'\xa0\x1fBf\xde\x04\x08@'
p829
tp830
bag4
(g8
S'\xe3<\x03\x8c\xc0e\xf6?'
p831
tp832
Rp833
ag14
(g15
(I0
tp834
g17
tp835
Rp836
(I1
(tg8
I00
S'R \xceR\xdfx\x08@'
p837
tp838
baa(lp839
g49
ag4
(g8
S'2\x82\xda\xd3\x98\xeb\xf5?'
p840
tp841
Rp842
ag14
(g15
(I0
tp843
g17
tp844
Rp845
(I1
(tg8
I00
S'\xcb`M\rfZ\x08@'
p846
tp847
bag4
(g8
S"\xec\xb5'\x88\xbf\x91\xf6?"
p848
tp849
Rp850
ag14
(g15
(I0
tp851
g17
tp852
Rp853
(I1
(tg8
I00
S'\xb12\x07\xb3c\xed\x08@'
p854
tp855
baa(lp856
g67
ag4
(g8
S'\x1d\x1a.\x03\x9c\xd0\xf5?'
p857
tp858
Rp859
ag14
(g15
(I0
tp860
g17
tp861
Rp862
(I1
(tg8
I00
S'\xf25T\x8d\xa2\x13\x08@'
p863
tp864
bag4
(g8
S'\xaf.\xa2}s\x8c\xf6?'
p865
tp866
Rp867
ag14
(g15
(I0
tp868
g17
tp869
Rp870
(I1
(tg8
I00
S'\xdc\xfc\x85^\x93\xa4\x08@'
p871
tp872
baa(lp873
g85
ag4
(g8
S'gH\xe2W\xef\xd9\xf3?'
p874
tp875
Rp876
ag14
(g15
(I0
tp877
g17
tp878
Rp879
(I1
(tg8
I00
S'\xd4v\x93\xe7\xe7z\xf7?'
p880
tp881
bag4
(g8
S"\xf7'\xc0*\x98K\xf5?"
p882
tp883
Rp884
ag14
(g15
(I0
tp885
g17
tp886
Rp887
(I1
(tg8
I00
S'\x94\xd9\xfb\xfc\x06=\xfa?'
p888
tp889
baa(lp890
g103
ag4
(g8
S'\xf4\xdf\xd1Y\xec\xfe\xf3?'
p891
tp892
Rp893
ag14
(g15
(I0
tp894
g17
tp895
Rp896
(I1
(tg8
I00
S'\x90{\xaf\xac$q\xf7?'
p897
tp898
bag4
(g8
S'\xfa\x18\xaa\x10)W\xf5?'
p899
tp900
Rp901
ag14
(g15
(I0
tp902
g17
tp903
Rp904
(I1
(tg8
I00
S"'\xbc\x92\x10\x9fw\xfa?"
p905
tp906
baa(lp907
g121
ag4
(g8
S'\xa6\xc0\x98\x8e\x10\x89\xf3?'
p908
tp909
Rp910
ag14
(g15
(I0
tp911
g17
tp912
Rp913
(I1
(tg8
I00
S'\r\xce\xd1\xac4^\xf7?'
p914
tp915
bag4
(g8
S'\x92\xf1]\xa0\x00,\xf5?'
p916
tp917
Rp918
ag14
(g15
(I0
tp919
g17
tp920
Rp921
(I1
(tg8
I00
S'R\xe8\x86x]C\xfa?'
p922
tp923
baa(lp924
g139
ag4
(g8
S'\xd4co+\xa7\x87\xf3?'
p925
tp926
Rp927
ag14
(g15
(I0
tp928
g17
tp929
Rp930
(I1
(tg8
I00
S'\xa8\xf5GJ\xe2(\xf7?'
p931
tp932
bag4
(g8
S'\xe5\xbb\xa6\xee\xed\xfe\xf4?'
p933
tp934
Rp935
ag14
(g15
(I0
tp936
g17
tp937
Rp938
(I1
(tg8
I00
S'p\xf4\x9c\x0e\x9d9\xfa?'
p939
tp940
baa(lp941
g157
ag4
(g8
S'\xd6\x8e#t\xd6D\xf3?'
p942
tp943
Rp944
ag14
(g15
(I0
tp945
g17
tp946
Rp947
(I1
(tg8
I00
S';99!\x15\xa0\xf3?'
p948
tp949
bag4
(g8
S'\xdf2\xd38\x85A\xf5?'
p950
tp951
Rp952
ag14
(g15
(I0
tp953
g17
tp954
Rp955
(I1
(tg8
I00
S'\x07\x85\x0ee\xf3D\xf7?'
p956
tp957
baa(lp958
g175
ag4
(g8
S'8\x9eF8\xfb\xa0\xf3?'
p959
tp960
Rp961
ag14
(g15
(I0
tp962
g17
tp963
Rp964
(I1
(tg8
I00
S'\xc2$\xc1u^7\xf4?'
p965
tp966
bag4
(g8
S'\x18\xeeI\xac\xe3\xbc\xf4?'
p967
tp968
Rp969
ag14
(g15
(I0
tp970
g17
tp971
Rp972
(I1
(tg8
I00
S'g\xc7K\x90\n\xb9\xf6?'
p973
tp974
baa(lp975
g193
ag4
(g8
S'\xabv\x1e]\xf8\xcb\xf3?'
p976
tp977
Rp978
ag14
(g15
(I0
tp979
g17
tp980
Rp981
(I1
(tg8
I00
S'j\xfb\xfc=j1\xf4?'
p982
tp983
bag4
(g8
S'\xc1\x9b\x1a\x03p=\xf5?'
p984
tp985
Rp986
ag14
(g15
(I0
tp987
g17
tp988
Rp989
(I1
(tg8
I00
S'\x1a\xbf\xfc;\xb7\xd5\xf6?'
p990
tp991
baa(lp992
g211
ag4
(g8
S'\xf1k\xb5It\xc4\xf3?'
p993
tp994
Rp995
ag14
(g15
(I0
tp996
g17
tp997
Rp998
(I1
(tg8
I00
S'\x9b\xba_\xba\x18Z\xf4?'
p999
tp1000
bag4
(g8
S'\x01\xa7\xa3\xf8\x92D\xf5?'
p1001
tp1002
Rp1003
ag14
(g15
(I0
tp1004
g17
tp1005
Rp1006
(I1
(tg8
I00
S'\x12\xa6y!\xdcV\xf7?'
p1007
tp1008
baa(lp1009
g229
ag4
(g8
S'\xfc\x83JV\xa9f\xf5?'
p1010
tp1011
Rp1012
ag14
(g15
(I0
tp1013
g17
tp1014
Rp1015
(I1
(tg8
I00
S'\xde\xd59\xd2\x06\xdd\x07@'
p1016
tp1017
bag4
(g8
S'\xa6zY\x91\x8a\xec\xf5?'
p1018
tp1019
Rp1020
ag14
(g15
(I0
tp1021
g17
tp1022
Rp1023
(I1
(tg8
I00
S'\xb8^%\xcbxc\x08@'
p1024
tp1025
baa(lp1026
g247
ag4
(g8
S'\xa6^L\xbe0\xa5\xf5?'
p1027
tp1028
Rp1029
ag14
(g15
(I0
tp1030
g17
tp1031
Rp1032
(I1
(tg8
I00
S'\x1e! \x1b\xc4r\x08@'
p1033
tp1034
bag4
(g8
S'\xeb\xf8pz\xbbt\xf6?'
p1035
tp1036
Rp1037
ag14
(g15
(I0
tp1038
g17
tp1039
Rp1040
(I1
(tg8
I00
S'\n\xe4\xb0|x\x1a\t@'
p1041
tp1042
baa(lp1043
g265
ag4
(g8
S'\xb6\x9b\xadT\x01\xa9\xf5?'
p1044
tp1045
Rp1046
ag14
(g15
(I0
tp1047
g17
tp1048
Rp1049
(I1
(tg8
I00
S'\xdf\xcbm\x1eep\x08@'
p1050
tp1051
bag4
(g8
S'\xfe\x9d\xe5>\x96u\xf6?'
p1052
tp1053
Rp1054
ag14
(g15
(I0
tp1055
g17
tp1056
Rp1057
(I1
(tg8
I00
S'$%\xb0\x8f\xf5\x15\t@'
p1058
tp1059
baa(lp1060
g283
ag4
(g8
S'\t\x9ef\x1b%l\xf5?'
p1061
tp1062
Rp1063
ag14
(g15
(I0
tp1064
g17
tp1065
Rp1066
(I1
(tg8
I00
S'\n\x87\x12\xcbB\xe3\x07@'
p1067
tp1068
bag4
(g8
S'P\xdapF\x85\x02\xf6?'
p1069
tp1070
Rp1071
ag14
(g15
(I0
tp1072
g17
tp1073
Rp1074
(I1
(tg8
I00
S'\xech\x00\x07ae\x08@'
p1075
tp1076
baa(lp1077
g301
ag4
(g8
S'\x82\xb7d\xd6\x8cH\xf2?'
p1078
tp1079
Rp1080
ag14
(g15
(I0
tp1081
g17
tp1082
Rp1083
(I1
(tg8
I00
S'v\xbcs\xab\xc4W\xf5?'
p1084
tp1085
bag4
(g8
S't_\xecqE\xd7\xf3?'
p1086
tp1087
Rp1088
ag14
(g15
(I0
tp1089
g17
tp1090
Rp1091
(I1
(tg8
I00
S'b\xe9\xc7j\x81\xcd\xf8?'
p1092
tp1093
baa(lp1094
g319
ag4
(g8
S'\xa2_I\x11\x0e\xff\xf1?'
p1095
tp1096
Rp1097
ag14
(g15
(I0
tp1098
g17
tp1099
Rp1100
(I1
(tg8
I00
S'\xd61\xe2\xcc\x8d\x1f\xf5?'
p1101
tp1102
bag4
(g8
S'1\xeb\xa8\x17\xfd\xa7\xf3?'
p1103
tp1104
Rp1105
ag14
(g15
(I0
tp1106
g17
tp1107
Rp1108
(I1
(tg8
I00
S'6\xbb\x1fPg.\xf8?'
p1109
tp1110
baa(lp1111
g337
ag4
(g8
S'\xd3\x1b\x04\xf3\x12z\xf2?'
p1112
tp1113
Rp1114
ag14
(g15
(I0
tp1115
g17
tp1116
Rp1117
(I1
(tg8
I00
S'\x8bC\xdd\xade\x97\xf5?'
p1118
tp1119
bag4
(g8
S'^\x1c\x90|\x87a\xf4?'
p1120
tp1121
Rp1122
ag14
(g15
(I0
tp1123
g17
tp1124
Rp1125
(I1
(tg8
I00
S'h\x90;N\xf0\xb8\xf9?'
p1126
tp1127
baa(lp1128
g355
ag4
(g8
S'\x91O\xdc$\xa8O\xf2?'
p1129
tp1130
Rp1131
ag14
(g15
(I0
tp1132
g17
tp1133
Rp1134
(I1
(tg8
I00
S'\x14)U_\xa8T\xf5?'
p1135
tp1136
bag4
(g8
S'\xd1\x9bm(\x86\xa6\xf4?'
p1137
tp1138
Rp1139
ag14
(g15
(I0
tp1140
g17
tp1141
Rp1142
(I1
(tg8
I00
S'\t\x99Vq\x85\x92\xfa?'
p1143
tp1144
baa(lp1145
g373
ag4
(g8
S'\xd8u\x15\xe7H\xa2\xf1?'
p1146
tp1147
Rp1148
ag14
(g15
(I0
tp1149
g17
tp1150
Rp1151
(I1
(tg8
I00
S'/\xe4\x9fAI\xb1\xf0?'
p1152
tp1153
bag4
(g8
S'3\xef\xf94uR\xf4?'
p1154
tp1155
Rp1156
ag14
(g15
(I0
tp1157
g17
tp1158
Rp1159
(I1
(tg8
I00
S'y\xf8\x98x\x131\xf6?'
p1160
tp1161
baa(lp1162
g391
ag4
(g8
S'\xb6\xc7\x9e\x14M\\\xf2?'
p1163
tp1164
Rp1165
ag14
(g15
(I0
tp1166
g17
tp1167
Rp1168
(I1
(tg8
I00
S'\xcc)\xfcG\x01\xec\xf1?'
p1169
tp1170
bag4
(g8
S'S_\xa5\xc7\xe6\xfb\xf4?'
p1171
tp1172
Rp1173
ag14
(g15
(I0
tp1174
g17
tp1175
Rp1176
(I1
(tg8
I00
S'qyB\xd3\xf2\x19\xf7?'
p1177
tp1178
baa(lp1179
g409
ag4
(g8
S'@\xfa\xd8\xd5+\xe4\xf1?'
p1180
tp1181
Rp1182
ag14
(g15
(I0
tp1183
g17
tp1184
Rp1185
(I1
(tg8
I00
S'\xfe\xa9\x9f6Ry\xf1?'
p1186
tp1187
bag4
(g8
S'H\xd2\xc6\xf9\xb2(\xf4?'
p1188
tp1189
Rp1190
ag14
(g15
(I0
tp1191
g17
tp1192
Rp1193
(I1
(tg8
I00
S'-\x80\xe2\x08\x01\xd3\xf5?'
p1194
tp1195
baa(lp1196
g427
ag4
(g8
S'\xde\xbe\xd8\xbdsW\xf1?'
p1197
tp1198
Rp1199
ag14
(g15
(I0
tp1200
g17
tp1201
Rp1202
(I1
(tg8
I00
S'\xbd\xeaM\xe9\xcee\xf0?'
p1203
tp1204
bag4
(g8
S'rw;\x9d9\x18\xf4?'
p1205
tp1206
Rp1207
ag14
(g15
(I0
tp1208
g17
tp1209
Rp1210
(I1
(tg8
I00
S'r\xf7\x19\xd1{\xf6\xf5?'
p1211
tp1212
baa(lp1213
g445
ag4
(g8
S'\xe5\xba\xcb\\n\x89\xf5?'
p1214
tp1215
Rp1216
ag14
(g15
(I0
tp1217
g17
tp1218
Rp1219
(I1
(tg8
I00
S'\x12\x12\x98\xbb\x82\xba\x07@'
p1220
tp1221
bag4
(g8
S'\x06#\x1d\x82\xde\xe0\xf5?'
p1222
tp1223
Rp1224
ag14
(g15
(I0
tp1225
g17
tp1226
Rp1227
(I1
(tg8
I00
S'~\xe5\x0f\xc2\x9d\r\x08@'
p1228
tp1229
baa(lp1230
g463
ag4
(g8
S'\xeer\x02Z\xb4\x89\xf5?'
p1231
tp1232
Rp1233
ag14
(g15
(I0
tp1234
g17
tp1235
Rp1236
(I1
(tg8
I00
S'\x84\xbe\x8b\x9d\x9f\xa9\x07@'
p1237
tp1238
bag4
(g8
S'>\xd2FR\x08\xf9\xf5?'
p1239
tp1240
Rp1241
ag14
(g15
(I0
tp1242
g17
tp1243
Rp1244
(I1
(tg8
I00
S'&W-\xcf\xfd\x05\x08@'
p1245
tp1246
baa(lp1247
g481
ag4
(g8
S'U:\x00K1h\xf5?'
p1248
tp1249
Rp1250
ag14
(g15
(I0
tp1251
g17
tp1252
Rp1253
(I1
(tg8
I00
S'\xbe\x05\x82\x96\x02\xd9\x07@'
p1254
tp1255
bag4
(g8
S'\xfc\xf4\xe2\xdbq\xed\xf5?'
p1256
tp1257
Rp1258
ag14
(g15
(I0
tp1259
g17
tp1260
Rp1261
(I1
(tg8
I00
S'J\xd8\x14\r\xb4\\\x08@'
p1262
tp1263
baa(lp1264
g499
ag4
(g8
S'\t\xc6\xb1\x1f]]\xf1?'
p1265
tp1266
Rp1267
ag14
(g15
(I0
tp1268
g17
tp1269
Rp1270
(I1
(tg8
I00
S'\xed \xa5\t$\xb4\xf4?'
p1271
tp1272
bag4
(g8
S' "?0z\xe4\xf3?'
p1273
tp1274
Rp1275
ag14
(g15
(I0
tp1276
g17
tp1277
Rp1278
(I1
(tg8
I00
S'|\x11\xa1X3\xce\xf8?'
p1279
tp1280
baa(lp1281
g517
ag4
(g8
S'\xf0\xc4\x1b\xdbl\x8c\xf1?'
p1282
tp1283
Rp1284
ag14
(g15
(I0
tp1285
g17
tp1286
Rp1287
(I1
(tg8
I00
S'\x8b\x10a\x8d\x9b\xac\xf4?'
p1288
tp1289
bag4
(g8
S'|\x87\xf5\xc6(}\xf4?'
p1290
tp1291
Rp1292
ag14
(g15
(I0
tp1293
g17
tp1294
Rp1295
(I1
(tg8
I00
S'\x8e\xa6\x1d[\xa7\xba\xfa?'
p1296
tp1297
baa(lp1298
g535
ag4
(g8
S'\x15M\x10LK=\xf1?'
p1299
tp1300
Rp1301
ag14
(g15
(I0
tp1302
g17
tp1303
Rp1304
(I1
(tg8
I00
S'\x12\x84\xaa,\x90t\xf4?'
p1305
tp1306
bag4
(g8
S'k\xb5\xb6\x1aQ\xa7\xf3?'
p1307
tp1308
Rp1309
ag14
(g15
(I0
tp1310
g17
tp1311
Rp1312
(I1
(tg8
I00
S'\xff\xc5W,\x80!\xf9?'
p1313
tp1314
baa(lp1315
g553
ag4
(g8
S'\xf8X\xaa}\x8d"\xf1?'
p1316
tp1317
Rp1318
ag14
(g15
(I0
tp1319
g17
tp1320
Rp1321
(I1
(tg8
I00
S'\x81\xae\xc45\xfe\xd2\xef?'
p1322
tp1323
bag4
(g8
S'\xd4\xb8Y\xe9\xcd\xa1\xf4?'
p1324
tp1325
Rp1326
ag14
(g15
(I0
tp1327
g17
tp1328
Rp1329
(I1
(tg8
I00
S'C\x0e\x88\x9c\xfc\xaa\xf7?'
p1330
tp1331
baa(lp1332
g571
ag4
(g8
S'4\x16\x95\x1c\x85\x83\xf1?'
p1333
tp1334
Rp1335
ag14
(g15
(I0
tp1336
g17
tp1337
Rp1338
(I1
(tg8
I00
S'\x1c \xb1\xec\xb1\xa6\xf0?'
p1339
tp1340
bag4
(g8
S'\x13\xc1\xa7\xd7\x08/\xf4?'
p1341
tp1342
Rp1343
ag14
(g15
(I0
tp1344
g17
tp1345
Rp1346
(I1
(tg8
I00
S'\x13\x00\x86\xe9\x9cA\xf5?'
p1347
tp1348
baa(lp1349
g589
ag4
(g8
S'\xe18\x14>Y\xe8\xf0?'
p1350
tp1351
Rp1352
ag14
(g15
(I0
tp1353
g17
tp1354
Rp1355
(I1
(tg8
I00
S'\xe5\x98W\x87_\r\xef?'
p1356
tp1357
bag4
(g8
S'/\xab!\x96\x00\xb9\xf4?'
p1358
tp1359
Rp1360
ag14
(g15
(I0
tp1361
g17
tp1362
Rp1363
(I1
(tg8
I00
S'6\xd7|S\x07\xdc\xf7?'
p1364
tp1365
baa(lp1366
g607
ag4
(g8
S'\xd2\x8d\xab\x96\xb7)\xf1?'
p1367
tp1368
Rp1369
ag14
(g15
(I0
tp1370
g17
tp1371
Rp1372
(I1
(tg8
I00
S'!\\]9\x8c\x19\xf0?'
p1373
tp1374
bag4
(g8
S'\r6\x1aB/x\xf3?'
p1375
tp1376
Rp1377
ag14
(g15
(I0
tp1378
g17
tp1379
Rp1380
(I1
(tg8
I00
S'\xa3x@\xa8B\xc1\xf4?'
p1381
tp1382
baa(lp1383
g625
ag4
(g8
S'\x11\x97\xd1rPf\xf5?'
p1384
tp1385
Rp1386
ag14
(g15
(I0
tp1387
g17
tp1388
Rp1389
(I1
(tg8
I00
S'@\x01\xfbU\x91\xd8\x07@'
p1390
tp1391
bag4
(g8
S'\x9eC98\xe8\xec\xf5?'
p1392
tp1393
Rp1394
ag14
(g15
(I0
tp1395
g17
tp1396
Rp1397
(I1
(tg8
I00
S'\xda\xafhR]^\x08@'
p1398
tp1399
baa(lp1400
g643
ag4
(g8
S'\x8c\xff4\x9aF\x83\xf5?'
p1401
tp1402
Rp1403
ag14
(g15
(I0
tp1404
g17
tp1405
Rp1406
(I1
(tg8
I00
S',Q\xdbS\x96\xf5\x07@'
p1407
tp1408
bag4
(g8
S'\xa2t\xcdw\x0c6\xf6?'
p1409
tp1410
Rp1411
ag14
(g15
(I0
tp1412
g17
tp1413
Rp1414
(I1
(tg8
I00
S'\xb7\x01\xe8xj\x82\x08@'
p1415
tp1416
baa(lp1417
g661
ag4
(g8
S'\x99c\\\xcf\xccj\xf5?'
p1418
tp1419
Rp1420
ag14
(g15
(I0
tp1421
g17
tp1422
Rp1423
(I1
(tg8
I00
S's\xc1;R=\xd9\x07@'
p1424
tp1425
bag4
(g8
S'\xdc\x15\xc2=$\xeb\xf5?'
p1426
tp1427
Rp1428
ag14
(g15
(I0
tp1429
g17
tp1430
Rp1431
(I1
(tg8
I00
S'\n0\x12\xd7\xd0\\\x08@'
p1432
tp1433
baa(lp1434
g679
ag4
(g8
S'\x9f\x7fp\xc5\xec2\xf1?'
p1435
tp1436
Rp1437
ag14
(g15
(I0
tp1438
g17
tp1439
Rp1440
(I1
(tg8
I00
S';\xe5W\xbf\x8cV\xf4?'
p1441
tp1442
bag4
(g8
S'O$\x9a\xfb\xddP\xf3?'
p1443
tp1444
Rp1445
ag14
(g15
(I0
tp1446
g17
tp1447
Rp1448
(I1
(tg8
I00
S'k\x8c\xaa\x1fe\x04\xf9?'
p1449
tp1450
baa(lp1451
g697
ag4
(g8
S'}B\xf5eQ\xca\xf1?'
p1452
tp1453
Rp1454
ag14
(g15
(I0
tp1455
g17
tp1456
Rp1457
(I1
(tg8
I00
S'V\xea2l\xd4\xec\xf4?'
p1458
tp1459
bag4
(g8
S'\xdaS\xa9m\x8aV\xf4?'
p1460
tp1461
Rp1462
ag14
(g15
(I0
tp1463
g17
tp1464
Rp1465
(I1
(tg8
I00
S'K\xd3z\xd8\x98\x98\xfa?'
p1466
tp1467
baa(lp1468
g715
ag4
(g8
S'\x12+\xa0I\x87\xa9\xf1?'
p1469
tp1470
Rp1471
ag14
(g15
(I0
tp1472
g17
tp1473
Rp1474
(I1
(tg8
I00
S'\x98\xfb\xd9\xd4#\xb7\xf4?'
p1475
tp1476
bag4
(g8
S'\xd5\xd4G\x0e\xf2~\xf4?'
p1477
tp1478
Rp1479
ag14
(g15
(I0
tp1480
g17
tp1481
Rp1482
(I1
(tg8
I00
S'p\xffL0^D\xfa?'
p1483
tp1484
baa(lp1485
g733
ag4
(g8
S'\xfb\x0b\xcf\x01\x96\xc3\xf0?'
p1486
tp1487
Rp1488
ag14
(g15
(I0
tp1489
g17
tp1490
Rp1491
(I1
(tg8
I00
S'\xbb\xc6C(\xa4E\xee?'
p1492
tp1493
bag4
(g8
S"\xcc'\x13_\x1e\x87\xf4?"
p1494
tp1495
Rp1496
ag14
(g15
(I0
tp1497
g17
tp1498
Rp1499
(I1
(tg8
I00
S'\xff\xed\xc5uhg\xf8?'
p1500
tp1501
baa(lp1502
g751
ag4
(g8
S'c\xb8\xb5jg\xfb\xf0?'
p1503
tp1504
Rp1505
ag14
(g15
(I0
tp1506
g17
tp1507
Rp1508
(I1
(tg8
I00
S'Y)\x89F\x93\x96\xee?'
p1509
tp1510
bag4
(g8
S'D\x04\x7f\xcc\xb5\xaf\xf5?'
p1511
tp1512
Rp1513
ag14
(g15
(I0
tp1514
g17
tp1515
Rp1516
(I1
(tg8
I00
S'X\xb5)wFC\xf9?'
p1517
tp1518
baa(lp1519
g769
ag4
(g8
S'\x85q1\x1d4\x03\xf1?'
p1520
tp1521
Rp1522
ag14
(g15
(I0
tp1523
g17
tp1524
Rp1525
(I1
(tg8
I00
S'\xf4\xbd~}U2\xef?'
p1526
tp1527
bag4
(g8
S'\xe6\x1a-\xa0R\x12\xf4?'
p1528
tp1529
Rp1530
ag14
(g15
(I0
tp1531
g17
tp1532
Rp1533
(I1
(tg8
I00
S'\x89\x9d\x8fO\x13P\xf6?'
p1534
tp1535
baa(lp1536
g787
ag4
(g8
S'Z\x7fb\x122\xb0\xf0?'
p1537
tp1538
Rp1539
ag14
(g15
(I0
tp1540
g17
tp1541
Rp1542
(I1
(tg8
I00
S'\xa0\x04\xb1\xfd+\x14\xee?'
p1543
tp1544
bag4
(g8
S'\xae\xc3Zn#\xe0\xf4?'
p1545
tp1546
Rp1547
ag14
(g15
(I0
tp1548
g17
tp1549
Rp1550
(I1
(tg8
I00
S'l\xe3x\x82`\xd9\xf7?'
p1551
tp1552
baaa(lp1553
(lp1554
g3
ag4
(g8
S'\xdc\xa2\x17\xc2\xac\xd0\xf5?'
p1555
tp1556
Rp1557
ag14
(g15
(I0
tp1558
g17
tp1559
Rp1560
(I1
(tg8
I00
S'\xff\xd6\xf9\x1eI\xda\x07@'
p1561
tp1562
bag4
(g8
S'\xe0\xbf\x9f u\xfb\xf6?'
p1563
tp1564
Rp1565
ag14
(g15
(I0
tp1566
g17
tp1567
Rp1568
(I1
(tg8
I00
S'h\xc0F\x86\xc1\x19\t@'
p1569
tp1570
baa(lp1571
g31
ag4
(g8
S'\xeeEu\xd1\xe2\xd1\xf5?'
p1572
tp1573
Rp1574
ag14
(g15
(I0
tp1575
g17
tp1576
Rp1577
(I1
(tg8
I00
S'\xad)\xccB\x99\x02\x08@'
p1578
tp1579
bag4
(g8
S'?z>b\xd5\xe3\xf6?'
p1580
tp1581
Rp1582
ag14
(g15
(I0
tp1583
g17
tp1584
Rp1585
(I1
(tg8
I00
S'*\xde\x13F\xf9G\t@'
p1586
tp1587
baa(lp1588
g49
ag4
(g8
S'\x92\xea\xfc{\xb7\xb2\xf5?'
p1589
tp1590
Rp1591
ag14
(g15
(I0
tp1592
g17
tp1593
Rp1594
(I1
(tg8
I00
S'\x02Gr\xc9b\xe1\x07@'
p1595
tp1596
bag4
(g8
S'\x9a\xed\\f4\xea\xf6?'
p1597
tp1598
Rp1599
ag14
(g15
(I0
tp1600
g17
tp1601
Rp1602
(I1
(tg8
I00
S'\x98\x9a\xfb\xf2\xe4\x18\t@'
p1603
tp1604
baa(lp1605
g67
ag4
(g8
S'I \x1e\x17h)\xf6?'
p1606
tp1607
Rp1608
ag14
(g15
(I0
tp1609
g17
tp1610
Rp1611
(I1
(tg8
I00
S'\xaa\xaa\x9am\xc0;\x08@'
p1612
tp1613
bag4
(g8
S'[/\x89\xd2\xbcm\xf7?'
p1614
tp1615
Rp1616
ag14
(g15
(I0
tp1617
g17
tp1618
Rp1619
(I1
(tg8
I00
S'\xa9#Q\xd1x\x90\t@'
p1620
tp1621
baa(lp1622
g85
ag4
(g8
S'W\xe3Jn\x86\xf9\xf3?'
p1623
tp1624
Rp1625
ag14
(g15
(I0
tp1626
g17
tp1627
Rp1628
(I1
(tg8
I00
S'\xa7\x17\xfc\xc2\xa0\xd3\xf7?'
p1629
tp1630
bag4
(g8
S'`\x14\x04\xfd\xbbu\xf5?'
p1631
tp1632
Rp1633
ag14
(g15
(I0
tp1634
g17
tp1635
Rp1636
(I1
(tg8
I00
S'\x11\xb0\xce-\xaa\x0e\xfa?'
p1637
tp1638
baa(lp1639
g103
ag4
(g8
S'6\xa11lK\xbe\xf3?'
p1640
tp1641
Rp1642
ag14
(g15
(I0
tp1643
g17
tp1644
Rp1645
(I1
(tg8
I00
S'\xa6_\xe5\xd9\x84|\xf7?'
p1646
tp1647
bag4
(g8
S']|w\xfb\xc0Y\xf5?'
p1648
tp1649
Rp1650
ag14
(g15
(I0
tp1651
g17
tp1652
Rp1653
(I1
(tg8
I00
S'\xcd}\x03\x88\x15\xd9\xf9?'
p1654
tp1655
baa(lp1656
g121
ag4
(g8
S'\r\x07nM\xa2\xeb\xf3?'
p1657
tp1658
Rp1659
ag14
(g15
(I0
tp1660
g17
tp1661
Rp1662
(I1
(tg8
I00
S'\x80\x99\x03T\x00\xa6\xf7?'
p1663
tp1664
bag4
(g8
S'\xf6\xd7\xbf\xb1\x98\xd3\xf5?'
p1665
tp1666
Rp1667
ag14
(g15
(I0
tp1668
g17
tp1669
Rp1670
(I1
(tg8
I00
S'\xde\x8b\xcaA\x01\x9f\xfa?'
p1671
tp1672
baa(lp1673
g139
ag4
(g8
S'\xa6i)\x02\x95\xcb\xf3?'
p1674
tp1675
Rp1676
ag14
(g15
(I0
tp1677
g17
tp1678
Rp1679
(I1
(tg8
I00
S'"\xb3\xa1\xfd\xf2\xa1\xf7?'
p1680
tp1681
bag4
(g8
S'\x9cd\xf0~\xe8l\xf5?'
p1682
tp1683
Rp1684
ag14
(g15
(I0
tp1685
g17
tp1686
Rp1687
(I1
(tg8
I00
S'\xd1k?\x08\xa2\xf9\xf9?'
p1688
tp1689
baa(lp1690
g157
ag4
(g8
S'\xe5\xf9\x03\xba\x11\x7f\xf3?'
p1691
tp1692
Rp1693
ag14
(g15
(I0
tp1694
g17
tp1695
Rp1696
(I1
(tg8
I00
S'Q\xb4\xa0\x928a\xf4?'
p1697
tp1698
bag4
(g8
S'\xb8\xb4\n\xb2\xab\x81\xf5?'
p1699
tp1700
Rp1701
ag14
(g15
(I0
tp1702
g17
tp1703
Rp1704
(I1
(tg8
I00
S'\xe0kqTA\xc1\xf7?'
p1705
tp1706
baa(lp1707
g175
ag4
(g8
S'q_\xc3\x80\xd1\x93\xf3?'
p1708
tp1709
Rp1710
ag14
(g15
(I0
tp1711
g17
tp1712
Rp1713
(I1
(tg8
I00
S"t>'\xecg\\\xf4?"
p1714
tp1715
bag4
(g8
S'\xf6\xe4\xbd\x9fyA\xf5?'
p1716
tp1717
Rp1718
ag14
(g15
(I0
tp1719
g17
tp1720
Rp1721
(I1
(tg8
I00
S'\xf3\x1cW\xbe\x9c\xc8\xf6?'
p1722
tp1723
baa(lp1724
g193
ag4
(g8
S'\xaf\x87\x17\xebq\xa8\xf3?'
p1725
tp1726
Rp1727
ag14
(g15
(I0
tp1728
g17
tp1729
Rp1730
(I1
(tg8
I00
S'8\x96\xed\x80\x04Y\xf4?'
p1731
tp1732
bag4
(g8
S'\x91\xb8\x1e\x85GZ\xf5?'
p1733
tp1734
Rp1735
ag14
(g15
(I0
tp1736
g17
tp1737
Rp1738
(I1
(tg8
I00
S'\nkM\xa8#\xc0\xf6?'
p1739
tp1740
baa(lp1741
g211
ag4
(g8
S'p3Z\xe0\x07\xa8\xf3?'
p1742
tp1743
Rp1744
ag14
(g15
(I0
tp1745
g17
tp1746
Rp1747
(I1
(tg8
I00
S'\x11\x1a*S\x14g\xf4?'
p1748
tp1749
bag4
(g8
S'`w\x0f\xd4\x94\x9b\xf5?'
p1750
tp1751
Rp1752
ag14
(g15
(I0
tp1753
g17
tp1754
Rp1755
(I1
(tg8
I00
S'\xf22D`\x8f\xaa\xf7?'
p1756
tp1757
baa(lp1758
g229
ag4
(g8
S'>2(\xcf\x15x\xf5?'
p1759
tp1760
Rp1761
ag14
(g15
(I0
tp1762
g17
tp1763
Rp1764
(I1
(tg8
I00
S":'\xf2\xd5{}\x07@"
p1765
tp1766
bag4
(g8
S'\x13~\xb3GV\xa9\xf6?'
p1767
tp1768
Rp1769
ag14
(g15
(I0
tp1770
g17
tp1771
Rp1772
(I1
(tg8
I00
S"\x94'Eh\xdb\xe6\x08@"
p1773
tp1774
baa(lp1775
g247
ag4
(g8
S'\xe1\x86\xe1\xc2\x03p\xf5?'
p1776
tp1777
Rp1778
ag14
(g15
(I0
tp1779
g17
tp1780
Rp1781
(I1
(tg8
I00
S'\xb3\xf5\x91\x06\xc7|\x07@'
p1782
tp1783
bag4
(g8
S'\xb5\x16\xa4\xf36\xac\xf6?'
p1784
tp1785
Rp1786
ag14
(g15
(I0
tp1787
g17
tp1788
Rp1789
(I1
(tg8
I00
S'\x18\x1c\x8ff(\xe5\x08@'
p1790
tp1791
baa(lp1792
g265
ag4
(g8
S'\xbfv\x10\x030c\xf5?'
p1793
tp1794
Rp1795
ag14
(g15
(I0
tp1796
g17
tp1797
Rp1798
(I1
(tg8
I00
S'b\x8bqn\xcd\xb5\x07@'
p1799
tp1800
bag4
(g8
S'm\xb7\xf7\x7fN\x9f\xf6?'
p1801
tp1802
Rp1803
ag14
(g15
(I0
tp1804
g17
tp1805
Rp1806
(I1
(tg8
I00
S'\x82\xa8\xc1\xb3\x89\xff\x08@'
p1807
tp1808
baa(lp1809
g283
ag4
(g8
S'B\x8f\x1f;~\\\xf5?'
p1810
tp1811
Rp1812
ag14
(g15
(I0
tp1813
g17
tp1814
Rp1815
(I1
(tg8
I00
S',\xef.\xb0\n\xb7\x07@'
p1816
tp1817
bag4
(g8
S'b\x10\x8f\xba\xaa\x9f\xf6?'
p1818
tp1819
Rp1820
ag14
(g15
(I0
tp1821
g17
tp1822
Rp1823
(I1
(tg8
I00
S'\\\xe2\xbe\x9fW\x07\t@'
p1824
tp1825
baa(lp1826
g301
ag4
(g8
S'\x94\n\xa7\xf1QE\xf2?'
p1827
tp1828
Rp1829
ag14
(g15
(I0
tp1830
g17
tp1831
Rp1832
(I1
(tg8
I00
S'3\xfc3\x12q\xc0\xf5?'
p1833
tp1834
bag4
(g8
S'\xb2\xe9G!\x88Y\xf4?'
p1835
tp1836
Rp1837
ag14
(g15
(I0
tp1838
g17
tp1839
Rp1840
(I1
(tg8
I00
S'Oc\t(\x96\x06\xf9?'
p1841
tp1842
baa(lp1843
g319
ag4
(g8
S')TC\xf6\xa9h\xf2?'
p1844
tp1845
Rp1846
ag14
(g15
(I0
tp1847
g17
tp1848
Rp1849
(I1
(tg8
I00
S'KC\xacA\xa0\xa0\xf5?'
p1850
tp1851
bag4
(g8
S'\xd0AJu\xcak\xf4?'
p1852
tp1853
Rp1854
ag14
(g15
(I0
tp1855
g17
tp1856
Rp1857
(I1
(tg8
I00
S'\xc6\x11\x05\x1f=\x96\xf8?'
p1858
tp1859
baa(lp1860
g337
ag4
(g8
S'\x15\xcf\x18\xb9\x01k\xf2?'
p1861
tp1862
Rp1863
ag14
(g15
(I0
tp1864
g17
tp1865
Rp1866
(I1
(tg8
I00
S'\xcc\xe5\xe1\xe7r#\xf6?'
p1867
tp1868
bag4
(g8
S'J\x03@:]U\xf4?'
p1869
tp1870
Rp1871
ag14
(g15
(I0
tp1872
g17
tp1873
Rp1874
(I1
(tg8
I00
S'\xf5\x14\xf7\xce\x99\xda\xf9?'
p1875
tp1876
baa(lp1877
g355
ag4
(g8
S'\x1b?\xe5f\x1d\xfc\xf1?'
p1878
tp1879
Rp1880
ag14
(g15
(I0
tp1881
g17
tp1882
Rp1883
(I1
(tg8
I00
S'\xff]l)P|\xf5?'
p1884
tp1885
bag4
(g8
S'\x81Ut\x86[\xd6\xf3?'
p1886
tp1887
Rp1888
ag14
(g15
(I0
tp1889
g17
tp1890
Rp1891
(I1
(tg8
I00
S'\xa9(5\xd7\xe1\xa5\xf8?'
p1892
tp1893
baa(lp1894
g373
ag4
(g8
S'Kt\xd9\x94\xf0M\xf1?'
p1895
tp1896
Rp1897
ag14
(g15
(I0
tp1898
g17
tp1899
Rp1900
(I1
(tg8
I00
S'\x19\xd3\xfc=\x06@\xf1?'
p1901
tp1902
bag4
(g8
S'+G \x10\x1f\x1c\xf4?'
p1903
tp1904
Rp1905
ag14
(g15
(I0
tp1906
g17
tp1907
Rp1908
(I1
(tg8
I00
S'\xf8\x12\x1c\x17Z\xfd\xf5?'
p1909
tp1910
baa(lp1911
g391
ag4
(g8
S'\xb5n\xa6\xe9r\x1a\xf2?'
p1912
tp1913
Rp1914
ag14
(g15
(I0
tp1915
g17
tp1916
Rp1917
(I1
(tg8
I00
S'\xc0qp\x15L&\xf2?'
p1918
tp1919
bag4
(g8
S'\xa9\xcc\xda\x00M\xd1\xf4?'
p1920
tp1921
Rp1922
ag14
(g15
(I0
tp1923
g17
tp1924
Rp1925
(I1
(tg8
I00
S'\xec\xbf\xa1\xe2\x89\x8b\xf5?'
p1926
tp1927
baa(lp1928
g409
ag4
(g8
S'\xbd@\x9f\xfa\xe94\xf2?'
p1929
tp1930
Rp1931
ag14
(g15
(I0
tp1932
g17
tp1933
Rp1934
(I1
(tg8
I00
S'\x19r\xc7\x0c;\x15\xf2?'
p1935
tp1936
bag4
(g8
S';\xde%\x8a\x9d\xd1\xf3?'
p1937
tp1938
Rp1939
ag14
(g15
(I0
tp1940
g17
tp1941
Rp1942
(I1
(tg8
I00
S'\xafu\x9bo\xd7o\xf4?'
p1943
tp1944
baa(lp1945
g427
ag4
(g8
S"\xb2\x9b\xc7'x\x95\xf1?"
p1946
tp1947
Rp1948
ag14
(g15
(I0
tp1949
g17
tp1950
Rp1951
(I1
(tg8
I00
S'{\xca\xa5\xd7\xbf:\xf1?'
p1952
tp1953
bag4
(g8
S'\x97\xec~\xb6"\x13\xf4?'
p1954
tp1955
Rp1956
ag14
(g15
(I0
tp1957
g17
tp1958
Rp1959
(I1
(tg8
I00
S'\xeb!\x12S7\xe2\xf4?'
p1960
tp1961
baa(lp1962
g445
ag4
(g8
S'\xa9y\xfc\x84\xaa`\xf5?'
p1963
tp1964
Rp1965
ag14
(g15
(I0
tp1966
g17
tp1967
Rp1968
(I1
(tg8
I00
S'P\xd0i=\xf0\xb5\x07@'
p1969
tp1970
bag4
(g8
S'A\x80Mm\xc8\x9b\xf6?'
p1971
tp1972
Rp1973
ag14
(g15
(I0
tp1974
g17
tp1975
Rp1976
(I1
(tg8
I00
S'\xc7\x07\xf7\xe0\xc7\x03\t@'
p1977
tp1978
baa(lp1979
g463
ag4
(g8
S'\xe0\xdf\x02\x9c\x88W\xf5?'
p1980
tp1981
Rp1982
ag14
(g15
(I0
tp1983
g17
tp1984
Rp1985
(I1
(tg8
I00
S'\x0c\xa9\xaa\xd0\x9c\xb9\x07@'
p1986
tp1987
bag4
(g8
S'\xc87JK\x1b\xac\xf6?'
p1988
tp1989
Rp1990
ag14
(g15
(I0
tp1991
g17
tp1992
Rp1993
(I1
(tg8
I00
S'\x92(&9\xb6\x0c\t@'
p1994
tp1995
baa(lp1996
g481
ag4
(g8
S'\xb1\xd3\x1e\x94dl\xf5?'
p1997
tp1998
Rp1999
ag14
(g15
(I0
tp2000
g17
tp2001
Rp2002
(I1
(tg8
I00
S'\xc6\xdf\x9fK0\xd3\x07@'
p2003
tp2004
bag4
(g8
S'\xbec[\x07\x05\xc0\xf6?'
p2005
tp2006
Rp2007
ag14
(g15
(I0
tp2008
g17
tp2009
Rp2010
(I1
(tg8
I00
S'\x10\xd3\xd3@\xa0\x1f\t@'
p2011
tp2012
baa(lp2013
g499
ag4
(g8
S'\xf2W\xa2l\xb4Y\xf1?'
p2014
tp2015
Rp2016
ag14
(g15
(I0
tp2017
g17
tp2018
Rp2019
(I1
(tg8
I00
S'NL\x80Hl\xc0\xf4?'
p2020
tp2021
bag4
(g8
S'\xea\xac\x8c\xf1\x8cQ\xf4?'
p2022
tp2023
Rp2024
ag14
(g15
(I0
tp2025
g17
tp2026
Rp2027
(I1
(tg8
I00
S'\n\xe2V\x0c\xed\x81\xf9?'
p2028
tp2029
baa(lp2030
g517
ag4
(g8
S'\x10\xb2*\x07&H\xf1?'
p2031
tp2032
Rp2033
ag14
(g15
(I0
tp2034
g17
tp2035
Rp2036
(I1
(tg8
I00
S'\x18mJ\xb6_\x8f\xf4?'
p2037
tp2038
bag4
(g8
S'\xbd\x03\x9e\x11*H\xf4?'
p2039
tp2040
Rp2041
ag14
(g15
(I0
tp2042
g17
tp2043
Rp2044
(I1
(tg8
I00
S'\x82\xaej\x0e \xbc\xf9?'
p2045
tp2046
baa(lp2047
g535
ag4
(g8
S'\x1fY,\x92\x1fN\xf1?'
p2048
tp2049
Rp2050
ag14
(g15
(I0
tp2051
g17
tp2052
Rp2053
(I1
(tg8
I00
S'}Y;\x84\xbe\x9f\xf4?'
p2054
tp2055
bag4
(g8
S'\xfa[\x92\xb0@\xcb\xf3?'
p2056
tp2057
Rp2058
ag14
(g15
(I0
tp2059
g17
tp2060
Rp2061
(I1
(tg8
I00
S' \xd5aj\xd5,\xf8?'
p2062
tp2063
baa(lp2064
g553
ag4
(g8
S'\xfc\x00\xf8\xd8w\xb0\xf1?'
p2065
tp2066
Rp2067
ag14
(g15
(I0
tp2068
g17
tp2069
Rp2070
(I1
(tg8
I00
S'}\xf0\x8e\xffbC\xf1?'
p2071
tp2072
bag4
(g8
S'\xa4S\x8eA\xd22\xf4?'
p2073
tp2074
Rp2075
ag14
(g15
(I0
tp2076
g17
tp2077
Rp2078
(I1
(tg8
I00
S'C\x99\xa9\x96\xb8:\xf5?'
p2079
tp2080
baa(lp2081
g571
ag4
(g8
S'v\x87\xe4-\xc5\x8a\xf1?'
p2082
tp2083
Rp2084
ag14
(g15
(I0
tp2085
g17
tp2086
Rp2087
(I1
(tg8
I00
S'\x98V\xf5\x85=\t\xf1?'
p2088
tp2089
bag4
(g8
S'J\xb8\xf8W\x843\xf4?'
p2090
tp2091
Rp2092
ag14
(g15
(I0
tp2093
g17
tp2094
Rp2095
(I1
(tg8
I00
S'\xcb\x8b\xc86\xb6\xd1\xf4?'
p2096
tp2097
baa(lp2098
g589
ag4
(g8
S'-\xeff\xc9\xd3\x93\xf1?'
p2099
tp2100
Rp2101
ag14
(g15
(I0
tp2102
g17
tp2103
Rp2104
(I1
(tg8
I00
S'\xbf\xab\x87{\xc6H\xf1?'
p2105
tp2106
bag4
(g8
S'4\r\x86\x97IL\xf5?'
p2107
tp2108
Rp2109
ag14
(g15
(I0
tp2110
g17
tp2111
Rp2112
(I1
(tg8
I00
S'<m\x0f\xd6=3\xf8?'
p2113
tp2114
baa(lp2115
g607
ag4
(g8
S'\x1d\xab\x06\x0f\xb3\x12\xf1?'
p2116
tp2117
Rp2118
ag14
(g15
(I0
tp2119
g17
tp2120
Rp2121
(I1
(tg8
I00
S'cF\n\xa3\xc8\x19\xf0?'
p2122
tp2123
bag4
(g8
S'C\xc0\xa5\x8f\x9f\x94\xf4?'
p2124
tp2125
Rp2126
ag14
(g15
(I0
tp2127
g17
tp2128
Rp2129
(I1
(tg8
I00
S'A\xae\x0en\n<\xf7?'
p2130
tp2131
baa(lp2132
g625
ag4
(g8
S'\x9bj\x85\xa3\x8f\xb3\xf5?'
p2133
tp2134
Rp2135
ag14
(g15
(I0
tp2136
g17
tp2137
Rp2138
(I1
(tg8
I00
S'\x980O\xa1\xecV\x08@'
p2139
tp2140
bag4
(g8
S"\x03z'D\xc4\xef\xf6?"
p2141
tp2142
Rp2143
ag14
(g15
(I0
tp2144
g17
tp2145
Rp2146
(I1
(tg8
I00
S'B\x12\xf6X\xe2\x8f\t@'
p2147
tp2148
baa(lp2149
g643
ag4
(g8
S',\x10|\xd2\x9aX\xf5?'
p2150
tp2151
Rp2152
ag14
(g15
(I0
tp2153
g17
tp2154
Rp2155
(I1
(tg8
I00
S'\xe3M\xb6\x88\xd9\xb4\x07@'
p2156
tp2157
bag4
(g8
S'\xdd\x90\x9b\xe4\x0b\xa1\xf6?'
p2158
tp2159
Rp2160
ag14
(g15
(I0
tp2161
g17
tp2162
Rp2163
(I1
(tg8
I00
S'\xa7\x1b9\x93\xc9\x02\t@'
p2164
tp2165
baa(lp2166
g661
ag4
(g8
S'\xf7@R\xe0\x99Z\xf5?'
p2167
tp2168
Rp2169
ag14
(g15
(I0
tp2170
g17
tp2171
Rp2172
(I1
(tg8
I00
S'\xdew\x07\xbd\xde\xb4\x07@'
p2173
tp2174
bag4
(g8
S'i7\\\xaai\xa9\xf6?'
p2175
tp2176
Rp2177
ag14
(g15
(I0
tp2178
g17
tp2179
Rp2180
(I1
(tg8
I00
S'<\xce\x9dp$\x04\t@'
p2181
tp2182
baa(lp2183
g679
ag4
(g8
S'\xb9\x83\xdf\xc3\xb4z\xf1?'
p2184
tp2185
Rp2186
ag14
(g15
(I0
tp2187
g17
tp2188
Rp2189
(I1
(tg8
I00
S'&\xbc$\xbeo\xf0\xf4?'
p2190
tp2191
bag4
(g8
S'^a\x19\xc9#\xe0\xf4?'
p2192
tp2193
Rp2194
ag14
(g15
(I0
tp2195
g17
tp2196
Rp2197
(I1
(tg8
I00
S'\xecJ+\xf3\x08\xd2\xf9?'
p2198
tp2199
baa(lp2200
g697
ag4
(g8
S'\x90\x1a\xcb\xe1\x1e\xf2\xf0?'
p2201
tp2202
Rp2203
ag14
(g15
(I0
tp2204
g17
tp2205
Rp2206
(I1
(tg8
I00
S'\x06\x8f\xe4\x91%K\xf4?'
p2207
tp2208
bag4
(g8
S'\xce\x1f\x12;\xdb\x96\xf4?'
p2209
tp2210
Rp2211
ag14
(g15
(I0
tp2212
g17
tp2213
Rp2214
(I1
(tg8
I00
S'\xa6\x88Z\xac\x9c/\xfa?'
p2215
tp2216
baa(lp2217
g715
ag4
(g8
S',\xc7\xb0E\t\x89\xf1?'
p2218
tp2219
Rp2220
ag14
(g15
(I0
tp2221
g17
tp2222
Rp2223
(I1
(tg8
I00
S'\xb9\xb8\xe8Z\x01\x07\xf5?'
p2224
tp2225
bag4
(g8
S')W\xda\xb6\x04\x9c\xf4?'
p2226
tp2227
Rp2228
ag14
(g15
(I0
tp2229
g17
tp2230
Rp2231
(I1
(tg8
I00
S'\xb1\xe6\xfd\x1c\xd9\x01\xfa?'
p2232
tp2233
baa(lp2234
g733
ag4
(g8
S'(gF\x0c2\x03\xf1?'
p2235
tp2236
Rp2237
ag14
(g15
(I0
tp2238
g17
tp2239
Rp2240
(I1
(tg8
I00
S'\xbd\r\xb7\xd0\x8eP\xf0?'
p2241
tp2242
bag4
(g8
S'l\x1b\x0fR\xb4\xaa\xf4?'
p2243
tp2244
Rp2245
ag14
(g15
(I0
tp2246
g17
tp2247
Rp2248
(I1
(tg8
I00
S'w~\xaf\xa9)\xd6\xf6?'
p2249
tp2250
baa(lp2251
g751
ag4
(g8
S'#\xaekD\x10\r\xf1?'
p2252
tp2253
Rp2254
ag14
(g15
(I0
tp2255
g17
tp2256
Rp2257
(I1
(tg8
I00
S'\xadD\xa98\x80\x1b\xf0?'
p2258
tp2259
bag4
(g8
S'\x1f\x11\xc8R%-\xf4?'
p2260
tp2261
Rp2262
ag14
(g15
(I0
tp2263
g17
tp2264
Rp2265
(I1
(tg8
I00
S'\xd6\x98u$Q\xff\xf5?'
p2266
tp2267
baa(lp2268
g769
ag4
(g8
S'\xaf\x12e\x9f\xc3\x05\xf1?'
p2269
tp2270
Rp2271
ag14
(g15
(I0
tp2272
g17
tp2273
Rp2274
(I1
(tg8
I00
S'\x1e\x9fY\x90\xd4\x16\xf0?'
p2275
tp2276
bag4
(g8
S'd\xc9\xb2J\x01C\xf4?'
p2277
tp2278
Rp2279
ag14
(g15
(I0
tp2280
g17
tp2281
Rp2282
(I1
(tg8
I00
S'\xfbWOU\xde\x1b\xf6?'
p2283
tp2284
baa(lp2285
g787
ag4
(g8
S'\xc7.\x92gv\x1e\xf1?'
p2286
tp2287
Rp2288
ag14
(g15
(I0
tp2289
g17
tp2290
Rp2291
(I1
(tg8
I00
S'!\x8d\xfb\xc9\xa9\x00\xf0?'
p2292
tp2293
bag4
(g8
S'\x0193dyv\xf4?'
p2294
tp2295
Rp2296
ag14
(g15
(I0
tp2297
g17
tp2298
Rp2299
(I1
(tg8
I00
S'\xdd\xea\xfa\x14\x13 \xf6?'
p2300
tp2301
baaa(lp2302
(lp2303
g3
ag4
(g8
S'W\xa5\xae\xea\x96 \xf6?'
p2304
tp2305
Rp2306
ag14
(g15
(I0
tp2307
g17
tp2308
Rp2309
(I1
(tg8
I00
S'TUm\x87\xf5}\x08@'
p2310
tp2311
bag4
(g8
S'\xa1Y\xb2mF\xac\xf5?'
p2312
tp2313
Rp2314
ag14
(g15
(I0
tp2315
g17
tp2316
Rp2317
(I1
(tg8
I00
S"\xbe\xdd\xdb]'\xcc\x06@"
p2318
tp2319
baa(lp2320
g31
ag4
(g8
S'\xc6\xdf\xab\xde_C\xf6?'
p2321
tp2322
Rp2323
ag14
(g15
(I0
tp2324
g17
tp2325
Rp2326
(I1
(tg8
I00
S'm*\xb3I3\x9b\x08@'
p2327
tp2328
bag4
(g8
S'{\xee\xc3\x97N\xba\xf5?'
p2329
tp2330
Rp2331
ag14
(g15
(I0
tp2332
g17
tp2333
Rp2334
(I1
(tg8
I00
S'\xf8\xeb\x8b\xbaQ\xdb\x06@'
p2335
tp2336
baa(lp2337
g49
ag4
(g8
S'\x02z\x05a\x0f#\xf6?'
p2338
tp2339
Rp2340
ag14
(g15
(I0
tp2341
g17
tp2342
Rp2343
(I1
(tg8
I00
S'\xef\x80#\xb3\xfcL\x08@'
p2344
tp2345
bag4
(g8
S'\x91\xc27\x07\xaf\xc8\xf5?'
p2346
tp2347
Rp2348
ag14
(g15
(I0
tp2349
g17
tp2350
Rp2351
(I1
(tg8
I00
S'\\`\xcb\xfe\xab\xaf\x06@'
p2352
tp2353
baa(lp2354
g67
ag4
(g8
S'\xd5\xa0\x84 nJ\xf6?'
p2355
tp2356
Rp2357
ag14
(g15
(I0
tp2358
g17
tp2359
Rp2360
(I1
(tg8
I00
S'\x9a\xaa\xa4\x1eq\xb4\x08@'
p2361
tp2362
bag4
(g8
S'\xbe\xa0Ul\x04\xb8\xf5?'
p2363
tp2364
Rp2365
ag14
(g15
(I0
tp2366
g17
tp2367
Rp2368
(I1
(tg8
I00
S'n\xaf\xe2\xab\t\xf9\x06@'
p2369
tp2370
baa(lp2371
g85
ag4
(g8
S'\x90eud#\x85\xf4?'
p2372
tp2373
Rp2374
ag14
(g15
(I0
tp2375
g17
tp2376
Rp2377
(I1
(tg8
I00
S'\xe0t\xcb\xc9\xc7E\xf9?'
p2378
tp2379
bag4
(g8
S'o|\xf7\xe5[\xef\xf3?'
p2380
tp2381
Rp2382
ag14
(g15
(I0
tp2383
g17
tp2384
Rp2385
(I1
(tg8
I00
S'\xdc\x87B1+\x17\xf6?'
p2386
tp2387
baa(lp2388
g103
ag4
(g8
S' 8\xb2\xc6\x06=\xf4?'
p2389
tp2390
Rp2391
ag14
(g15
(I0
tp2392
g17
tp2393
Rp2394
(I1
(tg8
I00
S'\xcf\xfe\x15C.\xb2\xf8?'
p2395
tp2396
bag4
(g8
S'N*\x87\xec\x80+\xf4?'
p2397
tp2398
Rp2399
ag14
(g15
(I0
tp2400
g17
tp2401
Rp2402
(I1
(tg8
I00
S'\xd9\xb9\xd83\xc8\x15\xf6?'
p2403
tp2404
baa(lp2405
g121
ag4
(g8
S'l\xda\xd6\x9e\xde5\xf4?'
p2406
tp2407
Rp2408
ag14
(g15
(I0
tp2409
g17
tp2410
Rp2411
(I1
(tg8
I00
S'\x1f\xb8\x8a\xbe\xbbv\xf8?'
p2412
tp2413
bag4
(g8
S'\x17\x08y1\x15\x05\xf4?'
p2414
tp2415
Rp2416
ag14
(g15
(I0
tp2417
g17
tp2418
Rp2419
(I1
(tg8
I00
S'\xe8\x98r\xd1\xcd\x97\xf5?'
p2420
tp2421
baa(lp2422
g139
ag4
(g8
S'\x07\x8d\xc6\xa0pd\xf3?'
p2423
tp2424
Rp2425
ag14
(g15
(I0
tp2426
g17
tp2427
Rp2428
(I1
(tg8
I00
S'\xf5{\x82K\x98\xd5\xf7?'
p2429
tp2430
bag4
(g8
S'(\xde\xb1A\x0e\xf3\xf2?'
p2431
tp2432
Rp2433
ag14
(g15
(I0
tp2434
g17
tp2435
Rp2436
(I1
(tg8
I00
S'}\xda+\xe4\xfdQ\xf4?'
p2437
tp2438
baa(lp2439
g157
ag4
(g8
S'\xf1qv\x97\xa5\x03\xf4?'
p2440
tp2441
Rp2442
ag14
(g15
(I0
tp2443
g17
tp2444
Rp2445
(I1
(tg8
I00
S'\xee\xceF\xbewB\xf5?'
p2446
tp2447
bag4
(g8
S'\xf61\xf0P\r\xf8\xf3?'
p2448
tp2449
Rp2450
ag14
(g15
(I0
tp2451
g17
tp2452
Rp2453
(I1
(tg8
I00
S'c\x84\\\x9a\x1e\xf1\xf2?'
p2454
tp2455
baa(lp2456
g175
ag4
(g8
S'\xe53\xac\x19\x8b\x1d\xf4?'
p2457
tp2458
Rp2459
ag14
(g15
(I0
tp2460
g17
tp2461
Rp2462
(I1
(tg8
I00
S'\x13\x92\xda\xe0c/\xf5?'
p2463
tp2464
bag4
(g8
S'\xe3^\x1a_\xb2\xb4\xf3?'
p2465
tp2466
Rp2467
ag14
(g15
(I0
tp2468
g17
tp2469
Rp2470
(I1
(tg8
I00
S'K\xd3\xe8\x7f\xdc2\xf2?'
p2471
tp2472
baa(lp2473
g193
ag4
(g8
S'g\xf0n\x83 \x05\xf4?'
p2474
tp2475
Rp2476
ag14
(g15
(I0
tp2477
g17
tp2478
Rp2479
(I1
(tg8
I00
S'\xa0R\x04T\x13H\xf5?'
p2480
tp2481
bag4
(g8
S'\x07\xa63}\xaf\xc2\xf3?'
p2482
tp2483
Rp2484
ag14
(g15
(I0
tp2485
g17
tp2486
Rp2487
(I1
(tg8
I00
S'\xde\xb4\xb4G/$\xf2?'
p2488
tp2489
baa(lp2490
g211
ag4
(g8
S'b\xa1\x99\x06\xeb\x8a\xf4?'
p2491
tp2492
Rp2493
ag14
(g15
(I0
tp2494
g17
tp2495
Rp2496
(I1
(tg8
I00
S'\no`\x00v/\xf6?'
p2497
tp2498
bag4
(g8
S'X\xa4\xdf@f\xcc\xf3?'
p2499
tp2500
Rp2501
ag14
(g15
(I0
tp2502
g17
tp2503
Rp2504
(I1
(tg8
I00
S'-\xcd\xf2\x81\x13}\xf2?'
p2505
tp2506
baa(lp2507
g229
ag4
(g8
S'\xa0YD\x93\xab\x1b\xf6?'
p2508
tp2509
Rp2510
ag14
(g15
(I0
tp2511
g17
tp2512
Rp2513
(I1
(tg8
I00
S'?\xc7\xc1\xf1\x11\xef\x08@'
p2514
tp2515
bag4
(g8
S'r\x95\xf3>-\xa8\xf5?'
p2516
tp2517
Rp2518
ag14
(g15
(I0
tp2519
g17
tp2520
Rp2521
(I1
(tg8
I00
S'J\xf5\x8f\xb3O@\x07@'
p2522
tp2523
baa(lp2524
g247
ag4
(g8
S'ny\x0f\x03h\xd2\xf5?'
p2525
tp2526
Rp2527
ag14
(g15
(I0
tp2528
g17
tp2529
Rp2530
(I1
(tg8
I00
S'G\xbeB\xdcTR\x08@'
p2531
tp2532
bag4
(g8
S'\x85\xaa\xef\xf3\xdfU\xf5?'
p2533
tp2534
Rp2535
ag14
(g15
(I0
tp2536
g17
tp2537
Rp2538
(I1
(tg8
I00
S'}\x00\xc2":\xa4\x06@'
p2539
tp2540
baa(lp2541
g265
ag4
(g8
S'?\xcc\xd7QQ\xe5\xf5?'
p2542
tp2543
Rp2544
ag14
(g15
(I0
tp2545
g17
tp2546
Rp2547
(I1
(tg8
I00
S"\x97\x8e\xc2\x9e'o\x08@"
p2548
tp2549
bag4
(g8
S'\xcf\x18df&\x88\xf5?'
p2550
tp2551
Rp2552
ag14
(g15
(I0
tp2553
g17
tp2554
Rp2555
(I1
(tg8
I00
S'MW\xa8\xc5N\xcb\x06@'
p2556
tp2557
baa(lp2558
g283
ag4
(g8
S'1#R~\x16\xcb\xf5?'
p2559
tp2560
Rp2561
ag14
(g15
(I0
tp2562
g17
tp2563
Rp2564
(I1
(tg8
I00
S'\x86\xeeL2xg\x08@'
p2565
tp2566
bag4
(g8
S'\xae\x0eA\x05u_\xf5?'
p2567
tp2568
Rp2569
ag14
(g15
(I0
tp2570
g17
tp2571
Rp2572
(I1
(tg8
I00
S'\xa4]\x07\xf3Z\xb8\x06@'
p2573
tp2574
baa(lp2575
g301
ag4
(g8
S'wy\x1c\xd8\r\xa0\xf2?'
p2576
tp2577
Rp2578
ag14
(g15
(I0
tp2579
g17
tp2580
Rp2581
(I1
(tg8
I00
S'%W\x1c\x18M\x95\xf6?'
p2582
tp2583
bag4
(g8
S'\xd4Jv\x9e\x15\xec\xf2?'
p2584
tp2585
Rp2586
ag14
(g15
(I0
tp2587
g17
tp2588
Rp2589
(I1
(tg8
I00
S'\xb1-\xc1\x9b\xbf\x9d\xf5?'
p2590
tp2591
baa(lp2592
g319
ag4
(g8
S'\xcfJ\xb0\xe9e\xed\xf2?'
p2593
tp2594
Rp2595
ag14
(g15
(I0
tp2596
g17
tp2597
Rp2598
(I1
(tg8
I00
S'\x02i\xcen\x00\n\xf7?'
p2599
tp2600
bag4
(g8
S't\xde\x07\xf9\x8e\xfb\xf2?'
p2601
tp2602
Rp2603
ag14
(g15
(I0
tp2604
g17
tp2605
Rp2606
(I1
(tg8
I00
S'\x9d\xe0Y\xcb"3\xf5?'
p2607
tp2608
baa(lp2609
g337
ag4
(g8
S'\xfb9\x82\xe6*\x8f\xf2?'
p2610
tp2611
Rp2612
ag14
(g15
(I0
tp2613
g17
tp2614
Rp2615
(I1
(tg8
I00
S'\xa0:E\n\xe1f\xf6?'
p2616
tp2617
bag4
(g8
S'\xf3\xaa\x15\n\x0c!\xf3?'
p2618
tp2619
Rp2620
ag14
(g15
(I0
tp2621
g17
tp2622
Rp2623
(I1
(tg8
I00
S'w\x16\xbd\x10\xe7-\xf5?'
p2624
tp2625
baa(lp2626
g355
ag4
(g8
S'Bv\\R\x06\xc3\xf2?'
p2627
tp2628
Rp2629
ag14
(g15
(I0
tp2630
g17
tp2631
Rp2632
(I1
(tg8
I00
S'x\x92C\x01\x1d\xdb\xf6?'
p2633
tp2634
bag4
(g8
S'b\x1eX\x9a\xd5\xe7\xf2?'
p2635
tp2636
Rp2637
ag14
(g15
(I0
tp2638
g17
tp2639
Rp2640
(I1
(tg8
I00
S'qL\xd6\x14\xf2\xf0\xf4?'
p2641
tp2642
baa(lp2643
g373
ag4
(g8
S's\tx\xb5\xd74\xf2?'
p2644
tp2645
Rp2646
ag14
(g15
(I0
tp2647
g17
tp2648
Rp2649
(I1
(tg8
I00
S'\xd6\xc4\x0e"\xa3h\xf2?'
p2650
tp2651
bag4
(g8
S'`M\xc5\xd1\xcfV\xf3?'
p2652
tp2653
Rp2654
ag14
(g15
(I0
tp2655
g17
tp2656
Rp2657
(I1
(tg8
I00
S'\x93\x10\xd3\x07\xb2\xbb\xf1?'
p2658
tp2659
baa(lp2660
g391
ag4
(g8
S'\xce\xc7&\xb5*k\xf2?'
p2661
tp2662
Rp2663
ag14
(g15
(I0
tp2664
g17
tp2665
Rp2666
(I1
(tg8
I00
S'\x17;\xcf=\xbe_\xf2?'
p2667
tp2668
bag4
(g8
S'\x0e/\xc0\xfa\xd0\x0e\xf3?'
p2669
tp2670
Rp2671
ag14
(g15
(I0
tp2672
g17
tp2673
Rp2674
(I1
(tg8
I00
S'\xeb=`}\x05z\xf1?'
p2675
tp2676
baa(lp2677
g409
ag4
(g8
S'\xdd\x9eb\x8a\xca\xd6\xf1?'
p2678
tp2679
Rp2680
ag14
(g15
(I0
tp2681
g17
tp2682
Rp2683
(I1
(tg8
I00
S'un\xa6\xben\xd2\xf1?'
p2684
tp2685
bag4
(g8
S'\x1d\xba\xf9\xc3\x07\xa6\xf2?'
p2686
tp2687
Rp2688
ag14
(g15
(I0
tp2689
g17
tp2690
Rp2691
(I1
(tg8
I00
S'1\x01<\x10\xdbN\xf1?'
p2692
tp2693
baa(lp2694
g427
ag4
(g8
S'\xd7\xa8zI\\d\xf2?'
p2695
tp2696
Rp2697
ag14
(g15
(I0
tp2698
g17
tp2699
Rp2700
(I1
(tg8
I00
S'\xfc\x7f\x8a\x92\xf5c\xf2?'
p2701
tp2702
bag4
(g8
S'cn\x01%\xb1\x1d\xf3?'
p2703
tp2704
Rp2705
ag14
(g15
(I0
tp2706
g17
tp2707
Rp2708
(I1
(tg8
I00
S'\xd7\xf5\xe9\xb1\x08\x83\xf1?'
p2709
tp2710
baa(lp2711
g445
ag4
(g8
S'\x1f\xb1\xc8\xa9f\xd1\xf5?'
p2712
tp2713
Rp2714
ag14
(g15
(I0
tp2715
g17
tp2716
Rp2717
(I1
(tg8
I00
S'\\XgX\xd4\x14\x08@'
p2718
tp2719
bag4
(g8
S';\x1fm\\n\x8a\xf5?'
p2720
tp2721
Rp2722
ag14
(g15
(I0
tp2723
g17
tp2724
Rp2725
(I1
(tg8
I00
S'\xcc\xaf5\x18\x0b\x84\x06@'
p2726
tp2727
baa(lp2728
g463
ag4
(g8
S'\xa8\xc2"\xaeC\xc6\xf5?'
p2729
tp2730
Rp2731
ag14
(g15
(I0
tp2732
g17
tp2733
Rp2734
(I1
(tg8
I00
S'&8v\x8e\x01R\x08@'
p2735
tp2736
bag4
(g8
S'\xb0\xc7\n1;O\xf5?'
p2737
tp2738
Rp2739
ag14
(g15
(I0
tp2740
g17
tp2741
Rp2742
(I1
(tg8
I00
S'\\\xf8>X\xc0\xa4\x06@'
p2743
tp2744
baa(lp2745
g481
ag4
(g8
S'\xfaN\xaf\xfa\xc7\xe2\xf5?'
p2746
tp2747
Rp2748
ag14
(g15
(I0
tp2749
g17
tp2750
Rp2751
(I1
(tg8
I00
S'\x88\x8aA\x84\xa1j\x08@'
p2752
tp2753
bag4
(g8
S'\x190\x89\x18\xbf\x86\xf5?'
p2754
tp2755
Rp2756
ag14
(g15
(I0
tp2757
g17
tp2758
Rp2759
(I1
(tg8
I00
S'\x03\xaa\x96f\x8a\xc6\x06@'
p2760
tp2761
baa(lp2762
g499
ag4
(g8
S'\xfd\xaeS}[!\xf2?'
p2763
tp2764
Rp2765
ag14
(g15
(I0
tp2766
g17
tp2767
Rp2768
(I1
(tg8
I00
S'\x06o\xd2\x97u\xfe\xf5?'
p2769
tp2770
bag4
(g8
S'OIu`Q\xd1\xf2?'
p2771
tp2772
Rp2773
ag14
(g15
(I0
tp2774
g17
tp2775
Rp2776
(I1
(tg8
I00
S'\xc3|\xd0\xb4\xb12\xf5?'
p2777
tp2778
baa(lp2779
g517
ag4
(g8
S'\xbb\xfe\xf7\xc41i\xf2?'
p2780
tp2781
Rp2782
ag14
(g15
(I0
tp2783
g17
tp2784
Rp2785
(I1
(tg8
I00
S'\x98A5c\xbbP\xf6?'
p2786
tp2787
bag4
(g8
S'}\x81#_\xe9\x1f\xf3?'
p2788
tp2789
Rp2790
ag14
(g15
(I0
tp2791
g17
tp2792
Rp2793
(I1
(tg8
I00
S'\xd4\xe4\x17z\x1f5\xf5?'
p2794
tp2795
baa(lp2796
g535
ag4
(g8
S't\x9c\x10N\x05\r\xf2?'
p2797
tp2798
Rp2799
ag14
(g15
(I0
tp2800
g17
tp2801
Rp2802
(I1
(tg8
I00
S'[s#Y\r\xeb\xf5?'
p2803
tp2804
bag4
(g8
S'\xba\xe57\n0\xb4\xf2?'
p2805
tp2806
Rp2807
ag14
(g15
(I0
tp2808
g17
tp2809
Rp2810
(I1
(tg8
I00
S'\xed\x16\x7f\xebk~\xf4?'
p2811
tp2812
baa(lp2813
g553
ag4
(g8
S'\x89\xbc\x95\x91\xeb\x92\xf1?'
p2814
tp2815
Rp2816
ag14
(g15
(I0
tp2817
g17
tp2818
Rp2819
(I1
(tg8
I00
S'au\x0b$V\n\xf1?'
p2820
tp2821
bag4
(g8
S'\xcbA\x17\xa0a\x19\xf3?'
p2822
tp2823
Rp2824
ag14
(g15
(I0
tp2825
g17
tp2826
Rp2827
(I1
(tg8
I00
S'\x8c\x06\xa4\x83\xae\xd4\xf2?'
p2828
tp2829
baa(lp2830
g571
ag4
(g8
S'Mn\x04\xd0\xe3\\\xf1?'
p2831
tp2832
Rp2833
ag14
(g15
(I0
tp2834
g17
tp2835
Rp2836
(I1
(tg8
I00
S'\x02\xd8\x1a\xeeM\xf6\xf0?'
p2837
tp2838
bag4
(g8
S'\xces\xba-\x7f>\xf3?'
p2839
tp2840
Rp2841
ag14
(g15
(I0
tp2842
g17
tp2843
Rp2844
(I1
(tg8
I00
S'\x82a0\xc2dY\xf2?'
p2845
tp2846
baa(lp2847
g589
ag4
(g8
S'^\x08\xa4\x88jy\xf2?'
p2848
tp2849
Rp2850
ag14
(g15
(I0
tp2851
g17
tp2852
Rp2853
(I1
(tg8
I00
S'\xbb\xf9\t\xeb\xaa\x9d\xf2?'
p2854
tp2855
bag4
(g8
S'o\x01\xa7\xb0\xc1A\xf3?'
p2856
tp2857
Rp2858
ag14
(g15
(I0
tp2859
g17
tp2860
Rp2861
(I1
(tg8
I00
S'q\xc5\x93\xe7\xac\xc4\xf1?'
p2862
tp2863
baa(lp2864
g607
ag4
(g8
S'\xd0\xbc\xe9\xba\xf0N\xf2?'
p2865
tp2866
Rp2867
ag14
(g15
(I0
tp2868
g17
tp2869
Rp2870
(I1
(tg8
I00
S'uHi\xe74\xe2\xf1?'
p2871
tp2872
bag4
(g8
S'.\xe1\r"m\x17\xf4?'
p2873
tp2874
Rp2875
ag14
(g15
(I0
tp2876
g17
tp2877
Rp2878
(I1
(tg8
I00
S'\x02\x01m\xb0\x7f\xe4\xf2?'
p2879
tp2880
baa(lp2881
g625
ag4
(g8
S'\x1d\xf2O\x16)\xd6\xf5?'
p2882
tp2883
Rp2884
ag14
(g15
(I0
tp2885
g17
tp2886
Rp2887
(I1
(tg8
I00
S'\xb5_\x12\x15 \x13\x08@'
p2888
tp2889
bag4
(g8
S'2\x1a\xd6\x9fW\x98\xf5?'
p2890
tp2891
Rp2892
ag14
(g15
(I0
tp2893
g17
tp2894
Rp2895
(I1
(tg8
I00
S'\xccd\x87\x94\x1c\x87\x06@'
p2896
tp2897
baa(lp2898
g643
ag4
(g8
S'\xb5c\x19{y\x19\xf6?'
p2899
tp2900
Rp2901
ag14
(g15
(I0
tp2902
g17
tp2903
Rp2904
(I1
(tg8
I00
S'$\x14D\x97)\xee\x08@'
p2905
tp2906
bag4
(g8
S'\xd0\x1e\x8e\xd9\xf0\xa6\xf5?'
p2907
tp2908
Rp2909
ag14
(g15
(I0
tp2910
g17
tp2911
Rp2912
(I1
(tg8
I00
S'N\xce6O%@\x07@'
p2913
tp2914
baa(lp2915
g661
ag4
(g8
S'\x98o\xa3\xb7\x1b\xcc\xf5?'
p2916
tp2917
Rp2918
ag14
(g15
(I0
tp2919
g17
tp2920
Rp2921
(I1
(tg8
I00
S'\xd9\x8e\x8e|\x883\x08@'
p2922
tp2923
bag4
(g8
S"a3/m'\x98\xf5?"
p2924
tp2925
Rp2926
ag14
(g15
(I0
tp2927
g17
tp2928
Rp2929
(I1
(tg8
I00
S'FB\x17\x0cf\xb8\x06@'
p2930
tp2931
baa(lp2932
g679
ag4
(g8
S'\xd5\xfbDD\x12z\xf1?'
p2933
tp2934
Rp2935
ag14
(g15
(I0
tp2936
g17
tp2937
Rp2938
(I1
(tg8
I00
S'\xa5\xbe\xb4\xd0\xd0J\xf5?'
p2939
tp2940
bag4
(g8
S'\x14\x82!o<M\xf2?'
p2941
tp2942
Rp2943
ag14
(g15
(I0
tp2944
g17
tp2945
Rp2946
(I1
(tg8
I00
S'q\x84\x9e\xafd\xd4\xf4?'
p2947
tp2948
baa(lp2949
g697
ag4
(g8
S'\x8b{\xa5"\xb7s\xf1?'
p2950
tp2951
Rp2952
ag14
(g15
(I0
tp2953
g17
tp2954
Rp2955
(I1
(tg8
I00
S'\x02\x9d\x856?G\xf5?'
p2956
tp2957
bag4
(g8
S'"\xb5C\x86\x06j\xf2?'
p2958
tp2959
Rp2960
ag14
(g15
(I0
tp2961
g17
tp2962
Rp2963
(I1
(tg8
I00
S'km\x83Lgf\xf5?'
p2964
tp2965
baa(lp2966
g715
ag4
(g8
S'ZJN?\xe2\x81\xf1?'
p2967
tp2968
Rp2969
ag14
(g15
(I0
tp2970
g17
tp2971
Rp2972
(I1
(tg8
I00
S'\x99e\x88D\x9ek\xf5?'
p2973
tp2974
bag4
(g8
S'\xc1\x82\x8eA\xdc-\xf2?'
p2975
tp2976
Rp2977
ag14
(g15
(I0
tp2978
g17
tp2979
Rp2980
(I1
(tg8
I00
S'(vO\xce2\xfd\xf4?'
p2981
tp2982
baa(lp2983
g733
ag4
(g8
S'\xb6b$7\x0cX\xf1?'
p2984
tp2985
Rp2986
ag14
(g15
(I0
tp2987
g17
tp2988
Rp2989
(I1
(tg8
I00
S'O\x10\xce2\x83k\xf0?'
p2990
tp2991
bag4
(g8
S'i\xa6b\xcd\x16\x00\xf4?'
p2992
tp2993
Rp2994
ag14
(g15
(I0
tp2995
g17
tp2996
Rp2997
(I1
(tg8
I00
S'\xbe\x11Z\xf2%\xa2\xf3?'
p2998
tp2999
baa(lp3000
g751
ag4
(g8
S'\xae.\xcd\xd4R\xae\xf1?'
p3001
tp3002
Rp3003
ag14
(g15
(I0
tp3004
g17
tp3005
Rp3006
(I1
(tg8
I00
S'\xc8\x1a\xdco\xe6\x01\xf1?'
p3007
tp3008
bag4
(g8
S'\x1c\x19\xa0y-S\xf3?'
p3009
tp3010
Rp3011
ag14
(g15
(I0
tp3012
g17
tp3013
Rp3014
(I1
(tg8
I00
S'\xad\xe8p\x9c\xe8\x96\xf2?'
p3015
tp3016
baa(lp3017
g769
ag4
(g8
S'\xd2p\x1e\xbe\x96\x04\xf1?'
p3018
tp3019
Rp3020
ag14
(g15
(I0
tp3021
g17
tp3022
Rp3023
(I1
(tg8
I00
S'\xef\xed\t\x0e\xbf\xe0\xf0?'
p3024
tp3025
bag4
(g8
S'i\x97\xfb\xb25\xfc\xf2?'
p3026
tp3027
Rp3028
ag14
(g15
(I0
tp3029
g17
tp3030
Rp3031
(I1
(tg8
I00
S'GJ\xe6mz\xda\xf1?'
p3032
tp3033
baa(lp3034
g787
ag4
(g8
S'\x85\x16\x9a\xeb\x08\x06\xf1?'
p3035
tp3036
Rp3037
ag14
(g15
(I0
tp3038
g17
tp3039
Rp3040
(I1
(tg8
I00
S'\xe3+\x94>\x9bb\xf0?'
p3041
tp3042
bag4
(g8
S'N\xaf\xaff\x1a\x95\xf2?'
p3043
tp3044
Rp3045
ag14
(g15
(I0
tp3046
g17
tp3047
Rp3048
(I1
(tg8
I00
S'$\xb2\xfeM\x0e.\xf2?'
p3049
tp3050
baaa(lp3051
(lp3052
g3
ag4
(g8
S'g\x89\xa3\xb57\xfb\xf5?'
p3053
tp3054
Rp3055
ag14
(g15
(I0
tp3056
g17
tp3057
Rp3058
(I1
(tg8
I00
S'h\x8d\x12\n\xe0\x1b\x08@'
p3059
tp3060
bag4
(g8
S'\xf3\xf9@\\C!\xf6?'
p3061
tp3062
Rp3063
ag14
(g15
(I0
tp3064
g17
tp3065
Rp3066
(I1
(tg8
I00
S'b\x0bM\xc7\n\xd3\x08@'
p3067
tp3068
baa(lp3069
g31
ag4
(g8
S'\xc5\x8e\x89\xde\x8f\x1d\xf6?'
p3070
tp3071
Rp3072
ag14
(g15
(I0
tp3073
g17
tp3074
Rp3075
(I1
(tg8
I00
S'2\xb9\xfa\xd0\x8e)\x08@'
p3076
tp3077
bag4
(g8
S'/\xa3\x8f\xa2qR\xf6?'
p3078
tp3079
Rp3080
ag14
(g15
(I0
tp3081
g17
tp3082
Rp3083
(I1
(tg8
I00
S'\xee9\xc7\xcd\xf0\xea\x08@'
p3084
tp3085
baa(lp3086
g49
ag4
(g8
S'7)r\x98\xc0\xe9\xf5?'
p3087
tp3088
Rp3089
ag14
(g15
(I0
tp3090
g17
tp3091
Rp3092
(I1
(tg8
I00
S'Dmh.\xe8\n\x08@'
p3093
tp3094
bag4
(g8
S'M\xe0\xfd\x8b\xfb\xf9\xf5?'
p3095
tp3096
Rp3097
ag14
(g15
(I0
tp3098
g17
tp3099
Rp3100
(I1
(tg8
I00
S'P"\x92\xca\x02\xa2\x08@'
p3101
tp3102
baa(lp3103
g67
ag4
(g8
S'\xf8\xd0\xf3<\x131\xf6?'
p3104
tp3105
Rp3106
ag14
(g15
(I0
tp3107
g17
tp3108
Rp3109
(I1
(tg8
I00
S'_\x1a\xd2\x80\xa9`\x08@'
p3110
tp3111
bag4
(g8
S'\xf9X\xe0\x89\x93G\xf6?'
p3112
tp3113
Rp3114
ag14
(g15
(I0
tp3115
g17
tp3116
Rp3117
(I1
(tg8
I00
S'\xd0\x1b\xcf\xd7\x83\xef\x08@'
p3118
tp3119
baa(lp3120
g85
ag4
(g8
S'\xe8\xac\x86\x1c\xce\x02\xf4?'
p3121
tp3122
Rp3123
ag14
(g15
(I0
tp3124
g17
tp3125
Rp3126
(I1
(tg8
I00
S'\x9a\x92\x9fA\x89\xf8\xf7?'
p3127
tp3128
bag4
(g8
S'D\xd9\xc3\ras\xf4?'
p3129
tp3130
Rp3131
ag14
(g15
(I0
tp3132
g17
tp3133
Rp3134
(I1
(tg8
I00
S'\xde\xc4\x8e\x90\xb0g\xfa?'
p3135
tp3136
baa(lp3137
g103
ag4
(g8
S'\xef\x9aD\x9d\x08<\xf4?'
p3138
tp3139
Rp3140
ag14
(g15
(I0
tp3141
g17
tp3142
Rp3143
(I1
(tg8
I00
S'\x98\xe9"\r\xec\x07\xf8?'
p3144
tp3145
bag4
(g8
S'g\xf2Z\xfat\x0b\xf4?'
p3146
tp3147
Rp3148
ag14
(g15
(I0
tp3149
g17
tp3150
Rp3151
(I1
(tg8
I00
S'\xbe\x1b"z\xb4\xea\xf9?'
p3152
tp3153
baa(lp3154
g121
ag4
(g8
S'}^\xfb\x81NO\xf4?'
p3155
tp3156
Rp3157
ag14
(g15
(I0
tp3158
g17
tp3159
Rp3160
(I1
(tg8
I00
S'\xf6\x93^af*\xf8?'
p3161
tp3162
bag4
(g8
S'\x17\xb0\x7f\x83\xbf`\xf4?'
p3163
tp3164
Rp3165
ag14
(g15
(I0
tp3166
g17
tp3167
Rp3168
(I1
(tg8
I00
S'\xee\x19\x80\x8f\x97y\xfa?'
p3169
tp3170
baa(lp3171
g139
ag4
(g8
S'\x12\x16\xafR\xcd%\xf4?'
p3172
tp3173
Rp3174
ag14
(g15
(I0
tp3175
g17
tp3176
Rp3177
(I1
(tg8
I00
S'MC\xd3\xe5\xe0\x11\xf8?'
p3178
tp3179
bag4
(g8
S'gZrX\x896\xf4?'
p3180
tp3181
Rp3182
ag14
(g15
(I0
tp3183
g17
tp3184
Rp3185
(I1
(tg8
I00
S'N?H{\xf4\xdc\xf9?'
p3186
tp3187
baa(lp3188
g157
ag4
(g8
S'\xf3\x07\xec\x13b\x96\xf3?'
p3189
tp3190
Rp3191
ag14
(g15
(I0
tp3192
g17
tp3193
Rp3194
(I1
(tg8
I00
S'\x10"\xdb\xdc\xcd\x18\xf4?'
p3195
tp3196
bag4
(g8
S'\xfc\xf5\x8bfU\xa0\xf3?'
p3197
tp3198
Rp3199
ag14
(g15
(I0
tp3200
g17
tp3201
Rp3202
(I1
(tg8
I00
S'\xdb\xd2O\xc6\xe6\x16\xf6?'
p3203
tp3204
baa(lp3205
g175
ag4
(g8
S'we\xa2{\x1f_\xf4?'
p3206
tp3207
Rp3208
ag14
(g15
(I0
tp3209
g17
tp3210
Rp3211
(I1
(tg8
I00
S'\xee*o\x9d-\x04\xf5?'
p3212
tp3213
bag4
(g8
S'\x0f=\xd3\xec\x1ce\xf4?'
p3214
tp3215
Rp3216
ag14
(g15
(I0
tp3217
g17
tp3218
Rp3219
(I1
(tg8
I00
S'\xe7z\xfcG\xb6\x9c\xf6?'
p3220
tp3221
baa(lp3222
g193
ag4
(g8
S'\x02V\xda\x9b\x1a\x82\xf3?'
p3223
tp3224
Rp3225
ag14
(g15
(I0
tp3226
g17
tp3227
Rp3228
(I1
(tg8
I00
S'\xe8s\xec\xf1TI\xf4?'
p3229
tp3230
bag4
(g8
S'Y\x81h\xe8\xe0\xd5\xf3?'
p3231
tp3232
Rp3233
ag14
(g15
(I0
tp3234
g17
tp3235
Rp3236
(I1
(tg8
I00
S'\xfev$\xa3\\\x90\xf6?'
p3237
tp3238
baa(lp3239
g211
ag4
(g8
S'\x13\xa2\xab\x0bF\x1c\xf4?'
p3240
tp3241
Rp3242
ag14
(g15
(I0
tp3243
g17
tp3244
Rp3245
(I1
(tg8
I00
S'\xc9N\xc05\xd4\xa2\xf4?'
p3246
tp3247
bag4
(g8
S'\xbe,\x84\x08\xaf\x04\xf4?'
p3248
tp3249
Rp3250
ag14
(g15
(I0
tp3251
g17
tp3252
Rp3253
(I1
(tg8
I00
S'\xd8\xd9\x922\xbe=\xf6?'
p3254
tp3255
baa(lp3256
g229
ag4
(g8
S'\xe8\x12N\xb5\xc8\xa4\xf5?'
p3257
tp3258
Rp3259
ag14
(g15
(I0
tp3260
g17
tp3261
Rp3262
(I1
(tg8
I00
S'J\x1d\xf4\xb7\x89\xde\x07@'
p3263
tp3264
bag4
(g8
S'\xff*\xfc7"\xf7\xf5?'
p3265
tp3266
Rp3267
ag14
(g15
(I0
tp3268
g17
tp3269
Rp3270
(I1
(tg8
I00
S'\x00?\xbf\xf2\xff\xb2\x08@'
p3271
tp3272
baa(lp3273
g247
ag4
(g8
S'\x15\x02iJ\xc1\xab\xf5?'
p3274
tp3275
Rp3276
ag14
(g15
(I0
tp3277
g17
tp3278
Rp3279
(I1
(tg8
I00
S'7n@2\x9e\xe1\x07@'
p3280
tp3281
bag4
(g8
S'\x8e\\\xcd\xb7\n\xfe\xf5?'
p3282
tp3283
Rp3284
ag14
(g15
(I0
tp3285
g17
tp3286
Rp3287
(I1
(tg8
I00
S'S\xc2[\xecG\xba\x08@'
p3288
tp3289
baa(lp3290
g265
ag4
(g8
S'\xcf\xe4yqb\xaa\xf5?'
p3291
tp3292
Rp3293
ag14
(g15
(I0
tp3294
g17
tp3295
Rp3296
(I1
(tg8
I00
S'\xf7a\xbe\x1e\xa8\xfa\x07@'
p3297
tp3298
bag4
(g8
S'\xe2Z\xd0\x9f\xac\xd3\xf5?'
p3299
tp3300
Rp3301
ag14
(g15
(I0
tp3302
g17
tp3303
Rp3304
(I1
(tg8
I00
S'\xca\xef\xeb\x8dC\xb6\x08@'
p3305
tp3306
baa(lp3307
g283
ag4
(g8
S'\xa7\xc3\xf9\xc8\xe1\xb2\xf5?'
p3308
tp3309
Rp3310
ag14
(g15
(I0
tp3311
g17
tp3312
Rp3313
(I1
(tg8
I00
S'\x8a\x8b\xb3\xfb\x0f\x17\x08@'
p3314
tp3315
bag4
(g8
S'\xfbt~\xf7e\xe7\xf5?'
p3316
tp3317
Rp3318
ag14
(g15
(I0
tp3319
g17
tp3320
Rp3321
(I1
(tg8
I00
S'\xdcW\xe1\x81~\xd3\x08@'
p3322
tp3323
baa(lp3324
g301
ag4
(g8
S'\xd8e.e\xea\xc5\xf2?'
p3325
tp3326
Rp3327
ag14
(g15
(I0
tp3328
g17
tp3329
Rp3330
(I1
(tg8
I00
S'\x9c=4So/\xf6?'
p3331
tp3332
bag4
(g8
S'\xa1\xd4\xb2@P\x08\xf3?'
p3333
tp3334
Rp3335
ag14
(g15
(I0
tp3336
g17
tp3337
Rp3338
(I1
(tg8
I00
S'\xb8x\x9fH\x02q\xf8?'
p3339
tp3340
baa(lp3341
g319
ag4
(g8
S'\xe2\x1d\xff\x07\xbe>\xf2?'
p3342
tp3343
Rp3344
ag14
(g15
(I0
tp3345
g17
tp3346
Rp3347
(I1
(tg8
I00
S'\xb8\xc0\xc8\x8a\x7f\x91\xf5?'
p3348
tp3349
bag4
(g8
S'\xd4\xe0\x86\x9f\x80\xae\xf2?'
p3350
tp3351
Rp3352
ag14
(g15
(I0
tp3353
g17
tp3354
Rp3355
(I1
(tg8
I00
S"\xee\xeb\xca\x1a'A\xf8?"
p3356
tp3357
baa(lp3358
g337
ag4
(g8
S'\x8cRz\xa2s\xaf\xf2?'
p3359
tp3360
Rp3361
ag14
(g15
(I0
tp3362
g17
tp3363
Rp3364
(I1
(tg8
I00
S'\x93\xa3Q\x7f\xe1+\xf6?'
p3365
tp3366
bag4
(g8
S'\x9b\xcf\xf2Hj\xf5\xf2?'
p3367
tp3368
Rp3369
ag14
(g15
(I0
tp3370
g17
tp3371
Rp3372
(I1
(tg8
I00
S'\xa4\x82\xda\x82\x85\xab\xf8?'
p3373
tp3374
baa(lp3375
g355
ag4
(g8
S'\xeb+\x88\x12\x1fq\xf2?'
p3376
tp3377
Rp3378
ag14
(g15
(I0
tp3379
g17
tp3380
Rp3381
(I1
(tg8
I00
S'\xbcZ\x96\x01e\x06\xf6?'
p3382
tp3383
bag4
(g8
S';~0\x95\xfe-\xf3?'
p3384
tp3385
Rp3386
ag14
(g15
(I0
tp3387
g17
tp3388
Rp3389
(I1
(tg8
I00
S'\xe6\x99\xc5\xeb\\z\xf9?'
p3390
tp3391
baa(lp3392
g373
ag4
(g8
S'\x96\x02~\\GW\xf2?'
p3393
tp3394
Rp3395
ag14
(g15
(I0
tp3396
g17
tp3397
Rp3398
(I1
(tg8
I00
S'\xa5\x10\xd1\xef\x98\xd6\xf1?'
p3399
tp3400
bag4
(g8
S"\xf0'7\xb6\x05\x14\xf3?"
p3401
tp3402
Rp3403
ag14
(g15
(I0
tp3404
g17
tp3405
Rp3406
(I1
(tg8
I00
S'\xc8\x8d\x88\x8b9?\xf5?'
p3407
tp3408
baa(lp3409
g391
ag4
(g8
S'%\xdbm07z\xf2?'
p3410
tp3411
Rp3412
ag14
(g15
(I0
tp3413
g17
tp3414
Rp3415
(I1
(tg8
I00
S'"\x8f\x9b\x07\x91\xd7\xf1?'
p3416
tp3417
bag4
(g8
S'\x95\x07\x11\x1d;\xcf\xf2?'
p3418
tp3419
Rp3420
ag14
(g15
(I0
tp3421
g17
tp3422
Rp3423
(I1
(tg8
I00
S'\x16\xf6nO\xcf\x8d\xf4?'
p3424
tp3425
baa(lp3426
g409
ag4
(g8
S'\x1cn]\xde\xb09\xf2?'
p3427
tp3428
Rp3429
ag14
(g15
(I0
tp3430
g17
tp3431
Rp3432
(I1
(tg8
I00
S'\x94\x1c&\x93\xbc\xbf\xf1?'
p3433
tp3434
bag4
(g8
S'\xff\xea\xae\x1dAv\xf2?'
p3435
tp3436
Rp3437
ag14
(g15
(I0
tp3438
g17
tp3439
Rp3440
(I1
(tg8
I00
S'\xaa\xa2v\xdc\x08\x97\xf4?'
p3441
tp3442
baa(lp3443
g427
ag4
(g8
S'W~\xae#k\x1a\xf2?'
p3444
tp3445
Rp3446
ag14
(g15
(I0
tp3447
g17
tp3448
Rp3449
(I1
(tg8
I00
S'\x13\xab0m\xc9\xa1\xf1?'
p3450
tp3451
bag4
(g8
S'\xf7\xd9\xe9\x1e\xac\xbf\xf2?'
p3452
tp3453
Rp3454
ag14
(g15
(I0
tp3455
g17
tp3456
Rp3457
(I1
(tg8
I00
S'.\xb3\xef\xd3Y\xaf\xf4?'
p3458
tp3459
baa(lp3460
g445
ag4
(g8
S'\xb4N\xb7\xee\xc3\xa1\xf5?'
p3461
tp3462
Rp3463
ag14
(g15
(I0
tp3464
g17
tp3465
Rp3466
(I1
(tg8
I00
S'\x82\xbd\xe5\x116\xdd\x07@'
p3467
tp3468
bag4
(g8
S'\xc0\xe7N\xaf\xa7\xf2\xf5?'
p3469
tp3470
Rp3471
ag14
(g15
(I0
tp3472
g17
tp3473
Rp3474
(I1
(tg8
I00
S'\x12\x8ex%\xd2\xb0\x08@'
p3475
tp3476
baa(lp3477
g463
ag4
(g8
S'\x0cS\x12g\x01\x9e\xf5?'
p3478
tp3479
Rp3480
ag14
(g15
(I0
tp3481
g17
tp3482
Rp3483
(I1
(tg8
I00
S'<\xe2\x96z\r\xdd\x07@'
p3484
tp3485
bag4
(g8
S'\xfc\xd0f\x99R\xec\xf5?'
p3486
tp3487
Rp3488
ag14
(g15
(I0
tp3489
g17
tp3490
Rp3491
(I1
(tg8
I00
S'F)\xf98\x04\xad\x08@'
p3492
tp3493
baa(lp3494
g481
ag4
(g8
S'4u\x041\x1e\xf0\xf5?'
p3495
tp3496
Rp3497
ag14
(g15
(I0
tp3498
g17
tp3499
Rp3500
(I1
(tg8
I00
S'\xd4Z\xf5\xcc\xa0{\x08@'
p3501
tp3502
bag4
(g8
S'5]m\xb4+\x1c\xf6?'
p3503
tp3504
Rp3505
ag14
(g15
(I0
tp3506
g17
tp3507
Rp3508
(I1
(tg8
I00
S'\x85"\xd3\xd9\x06A\t@'
p3509
tp3510
baa(lp3511
g499
ag4
(g8
S'\x01$\xfb\xaa\xddP\xf2?'
p3512
tp3513
Rp3514
ag14
(g15
(I0
tp3515
g17
tp3516
Rp3517
(I1
(tg8
I00
S'\\\xe1\xa9\x7ff\xf8\xf5?'
p3518
tp3519
bag4
(g8
S'\xf2\x96\x01\xa5r\xba\xf2?'
p3520
tp3521
Rp3522
ag14
(g15
(I0
tp3523
g17
tp3524
Rp3525
(I1
(tg8
I00
S'\x1bu\xab\xc9\n\xd3\xf8?'
p3526
tp3527
baa(lp3528
g517
ag4
(g8
S'\xa0\xa5N:\xbfd\xf2?'
p3529
tp3530
Rp3531
ag14
(g15
(I0
tp3532
g17
tp3533
Rp3534
(I1
(tg8
I00
S'\xd2LKQ\xa2\xb3\xf5?'
p3535
tp3536
bag4
(g8
S'\xdc\xde\xf9\xda\xedt\xf2?'
p3537
tp3538
Rp3539
ag14
(g15
(I0
tp3540
g17
tp3541
Rp3542
(I1
(tg8
I00
S'\xc6w\x04\xea\x925\xf8?'
p3543
tp3544
baa(lp3545
g535
ag4
(g8
S'\x0f\x07o\xd9\xbfG\xf2?'
p3546
tp3547
Rp3548
ag14
(g15
(I0
tp3549
g17
tp3550
Rp3551
(I1
(tg8
I00
S',\x1f\xa5p$\xbe\xf5?'
p3552
tp3553
bag4
(g8
S'\xb4R\xd96\x90N\xf3?'
p3554
tp3555
Rp3556
ag14
(g15
(I0
tp3557
g17
tp3558
Rp3559
(I1
(tg8
I00
S'\xc8\xd5\xdb\xe4\xc1\xc4\xf9?'
p3560
tp3561
baa(lp3562
g553
ag4
(g8
S'\x89\x8f\xe9\x9f*w\xf1?'
p3563
tp3564
Rp3565
ag14
(g15
(I0
tp3566
g17
tp3567
Rp3568
(I1
(tg8
I00
S'\xb5p\x1b\xc0f\x05\xf1?'
p3569
tp3570
bag4
(g8
S'\\\x89\x05C`\x80\xf2?'
p3571
tp3572
Rp3573
ag14
(g15
(I0
tp3574
g17
tp3575
Rp3576
(I1
(tg8
I00
S'\x10\x87\xf9Jp\xee\xf4?'
p3577
tp3578
baa(lp3579
g571
ag4
(g8
S'4/C\xf4\xdc\xb5\xf1?'
p3580
tp3581
Rp3582
ag14
(g15
(I0
tp3583
g17
tp3584
Rp3585
(I1
(tg8
I00
S'\r\xad\x90\x7f\x95>\xf1?'
p3586
tp3587
bag4
(g8
S"\xeb\x16\xfb'\xc4\xce\xf2?"
p3588
tp3589
Rp3590
ag14
(g15
(I0
tp3591
g17
tp3592
Rp3593
(I1
(tg8
I00
S'\xb5\xdf\xa4\x8c\xcd\xfa\xf4?'
p3594
tp3595
baa(lp3596
g589
ag4
(g8
S'\xacg\t\x89\xd6T\xf1?'
p3597
tp3598
Rp3599
ag14
(g15
(I0
tp3600
g17
tp3601
Rp3602
(I1
(tg8
I00
S'\xbf\xd2\x94\xaa\x84i\xf0?'
p3603
tp3604
bag4
(g8
S'\xa4\xc4\xc1(\x976\xf2?'
p3605
tp3606
Rp3607
ag14
(g15
(I0
tp3608
g17
tp3609
Rp3610
(I1
(tg8
I00
S'\x03\xbc\xbf\x1c\xebY\xf4?'
p3611
tp3612
baa(lp3613
g607
ag4
(g8
S'-\xe3\xb1Ax\x18\xf2?'
p3614
tp3615
Rp3616
ag14
(g15
(I0
tp3617
g17
tp3618
Rp3619
(I1
(tg8
I00
S'\xef\x9dd\xc0\xc8Q\xf1?'
p3620
tp3621
bag4
(g8
S'\x0eG\xb2d\xa2\x99\xf2?'
p3622
tp3623
Rp3624
ag14
(g15
(I0
tp3625
g17
tp3626
Rp3627
(I1
(tg8
I00
S'\xf0\xd11\xfaH\xa7\xf4?'
p3628
tp3629
baa(lp3630
g625
ag4
(g8
S'f\xd4\xf2\x1eo\xe2\xf5?'
p3631
tp3632
Rp3633
ag14
(g15
(I0
tp3634
g17
tp3635
Rp3636
(I1
(tg8
I00
S'\x08k^\x87zu\x08@'
p3637
tp3638
bag4
(g8
S'\x1a4\xde@\x9c!\xf6?'
p3639
tp3640
Rp3641
ag14
(g15
(I0
tp3642
g17
tp3643
Rp3644
(I1
(tg8
I00
S'^\xd8\xa3#\xb4H\t@'
p3645
tp3646
baa(lp3647
g643
ag4
(g8
S'\xfb\xdc\xb2-\xc5\xb2\xf5?'
p3648
tp3649
Rp3650
ag14
(g15
(I0
tp3651
g17
tp3652
Rp3653
(I1
(tg8
I00
S'\\\x7f\x8f{\xd5\xf7\x07@'
p3654
tp3655
bag4
(g8
S'C\xee)\xd7;\xd4\xf5?'
p3656
tp3657
Rp3658
ag14
(g15
(I0
tp3659
g17
tp3660
Rp3661
(I1
(tg8
I00
S'Go\xba\x0f\xa1\xae\x08@'
p3662
tp3663
baa(lp3664
g661
ag4
(g8
S'\r\x7f\xe3Ov\x9f\xf5?'
p3665
tp3666
Rp3667
ag14
(g15
(I0
tp3668
g17
tp3669
Rp3670
(I1
(tg8
I00
S'J\x0b\x9dP\xc7\xdc\x07@'
p3671
tp3672
bag4
(g8
S'\xaaWKv!\xf0\xf5?'
p3673
tp3674
Rp3675
ag14
(g15
(I0
tp3676
g17
tp3677
Rp3678
(I1
(tg8
I00
S'\x00A\x01GR\xae\x08@'
p3679
tp3680
baa(lp3681
g679
ag4
(g8
S'\xfef\xa0\x87\xe9\xbe\xf1?'
p3682
tp3683
Rp3684
ag14
(g15
(I0
tp3685
g17
tp3686
Rp3687
(I1
(tg8
I00
S'8\xb4\x80\xe4\xdf+\xf5?'
p3688
tp3689
bag4
(g8
S'\x94\xd6T]\xd7\x89\xf2?'
p3690
tp3691
Rp3692
ag14
(g15
(I0
tp3693
g17
tp3694
Rp3695
(I1
(tg8
I00
S'\x99\xff\xd3\x07\x06r\xf8?'
p3696
tp3697
baa(lp3698
g697
ag4
(g8
S'\x1c\r\xaf\xa4v\xcf\xf1?'
p3699
tp3700
Rp3701
ag14
(g15
(I0
tp3702
g17
tp3703
Rp3704
(I1
(tg8
I00
S'\xd7\xbf\x98w\x06\x10\xf5?'
p3705
tp3706
bag4
(g8
S'\xdeH\xcc_z\x8d\xf2?'
p3707
tp3708
Rp3709
ag14
(g15
(I0
tp3710
g17
tp3711
Rp3712
(I1
(tg8
I00
S'\xcf9\xb2{\xfb\x82\xf8?'
p3713
tp3714
baa(lp3715
g715
ag4
(g8
S'\x8aW\xad\x9e\xe8\xa4\xf1?'
p3716
tp3717
Rp3718
ag14
(g15
(I0
tp3719
g17
tp3720
Rp3721
(I1
(tg8
I00
S'\xa3\x99y\x15L\xe1\xf4?'
p3722
tp3723
bag4
(g8
S'rF{b\xd6 \xf2?'
p3724
tp3725
Rp3726
ag14
(g15
(I0
tp3727
g17
tp3728
Rp3729
(I1
(tg8
I00
S'\x01\t\xf0r\nZ\xf8?'
p3730
tp3731
baa(lp3732
g733
ag4
(g8
S'\x99\xf9\x06H\x1a\xa0\xf1?'
p3733
tp3734
Rp3735
ag14
(g15
(I0
tp3736
g17
tp3737
Rp3738
(I1
(tg8
I00
S'\xb1\xb1\x9fn\xb2\x98\xf0?'
p3739
tp3740
bag4
(g8
S')S\xea}\xae\x03\xf2?'
p3741
tp3742
Rp3743
ag14
(g15
(I0
tp3744
g17
tp3745
Rp3746
(I1
(tg8
I00
S'\x91`\xd0:Q\x01\xf4?'
p3747
tp3748
baa(lp3749
g751
ag4
(g8
S'h\xednjE~\xf1?'
p3750
tp3751
Rp3752
ag14
(g15
(I0
tp3753
g17
tp3754
Rp3755
(I1
(tg8
I00
S'\xa9\xdd\xae7\xce=\xf0?'
p3756
tp3757
bag4
(g8
S'\x16n\n\x10j\x10\xf2?'
p3758
tp3759
Rp3760
ag14
(g15
(I0
tp3761
g17
tp3762
Rp3763
(I1
(tg8
I00
S'.\x82\xe8N\x8e`\xf3?'
p3764
tp3765
baa(lp3766
g769
ag4
(g8
S'~\x7f\xd9^\t\x8f\xf1?'
p3767
tp3768
Rp3769
ag14
(g15
(I0
tp3770
g17
tp3771
Rp3772
(I1
(tg8
I00
S'K\xae;\xff\xa1\xa1\xf0?'
p3773
tp3774
bag4
(g8
S'\xa9\xca\xb0\xdc\xc4\x8c\xf2?'
p3775
tp3776
Rp3777
ag14
(g15
(I0
tp3778
g17
tp3779
Rp3780
(I1
(tg8
I00
S'\x06\x00e?\xbf\xdb\xf4?'
p3781
tp3782
baa(lp3783
g787
ag4
(g8
S'\\\x04\x1f\x08\x9aG\xf1?'
p3784
tp3785
Rp3786
ag14
(g15
(I0
tp3787
g17
tp3788
Rp3789
(I1
(tg8
I00
S'\xa8\xfc\x0chhF\xf0?'
p3790
tp3791
bag4
(g8
S'\x8c\xdc\xc5\xf3\xd1\xd2\xf1?'
p3792
tp3793
Rp3794
ag14
(g15
(I0
tp3795
g17
tp3796
Rp3797
(I1
(tg8
I00
S'U\x0eV\xf9I\x0f\xf3?'
p3798
tp3799
baaa.