(lp0
(lp1
(lp2
(lp3
I100
aF0.01
aF0.1
aF0.01
aacnumpy.core.multiarray
scalar
p4
(cnumpy
dtype
p5
(S'f8'
p6
I0
I1
tp7
Rp8
(I3
S'<'
p9
NNNI-1
I-1
I0
tp10
bS'\x10\xdd\x83\xb4K\x83\xf7?'
p11
tp12
Rp13
acnumpy.core.multiarray
_reconstruct
p14
(cnumpy
ndarray
p15
(I0
tp16
S'b'
p17
tp18
Rp19
(I1
(tg8
I00
S'\x9a\x15\x10+S]\x05@'
p20
tp21
bag4
(g8
S'\x139\xa4\x93\x105\xf9?'
p22
tp23
Rp24
ag14
(g15
(I0
tp25
g17
tp26
Rp27
(I1
(tg8
I00
S'2B\xd7,\xe9\xef\x07@'
p28
tp29
baa(lp30
(lp31
I100
aF0.01
aF0.3
aF0.01
aag4
(g8
S'\xed\xe5Q/"\x89\xf7?'
p32
tp33
Rp34
ag14
(g15
(I0
tp35
g17
tp36
Rp37
(I1
(tg8
I00
S'\\\xe9\x94WmM\x05@'
p38
tp39
bag4
(g8
S'U\x86Q\x0c\x0e9\xf9?'
p40
tp41
Rp42
ag14
(g15
(I0
tp43
g17
tp44
Rp45
(I1
(tg8
I00
S'\xc4\x95\x88\x91\xdc\xee\x07@'
p46
tp47
baa(lp48
(lp49
I100
aF0.01
aF0.6
aF0.01
aag4
(g8
S'\xcf\x7f^\xfb\xfa\xa3\xf7?'
p50
tp51
Rp52
ag14
(g15
(I0
tp53
g17
tp54
Rp55
(I1
(tg8
I00
S'0\xdf\xc1\xd6\x95_\x05@'
p56
tp57
bag4
(g8
S'\xc9?)\xf1\xa0S\xf9?'
p58
tp59
Rp60
ag14
(g15
(I0
tp61
g17
tp62
Rp63
(I1
(tg8
I00
S'\xfcV\xb6n0\xf0\x07@'
p64
tp65
baa(lp66
(lp67
I100
aF0.01
aF0.8
aF0.01
aag4
(g8
S'\x1f\xbe\xad\xe7"\x8a\xf7?'
p68
tp69
Rp70
ag14
(g15
(I0
tp71
g17
tp72
Rp73
(I1
(tg8
I00
S'\x19\x0f\xf5Q\xe2P\x05@'
p74
tp75
bag4
(g8
S'\x955C^"4\xf9?'
p76
tp77
Rp78
ag14
(g15
(I0
tp79
g17
tp80
Rp81
(I1
(tg8
I00
S'\xc1\xad4\xb2H\xec\x07@'
p82
tp83
baa(lp84
(lp85
I100
aF0.01
aF0.1
aF0.001
aag4
(g8
S'\xe3\xbe\xcc`\x8c\x19\xf5?'
p86
tp87
Rp88
ag14
(g15
(I0
tp89
g17
tp90
Rp91
(I1
(tg8
I00
S'\nIBDt\xf6\xf9?'
p92
tp93
bag4
(g8
S'\xe2 \xcb\x81\xf6\x1e\xf8?'
p94
tp95
Rp96
ag14
(g15
(I0
tp97
g17
tp98
Rp99
(I1
(tg8
I00
S'\xcc\xb1el\xbc\xf6\x00@'
p100
tp101
baa(lp102
(lp103
I100
aF0.01
aF0.3
aF0.001
aag4
(g8
S'Y{\xd0\x9d\xbf\xcf\xf4?'
p104
tp105
Rp106
ag14
(g15
(I0
tp107
g17
tp108
Rp109
(I1
(tg8
I00
S'>\xc9w\xec\x91\x8a\xf9?'
p110
tp111
bag4
(g8
S's\xd1[\xfb\x04\x04\xf8?'
p112
tp113
Rp114
ag14
(g15
(I0
tp115
g17
tp116
Rp117
(I1
(tg8
I00
S'\xf5\xbc\x01z\xc6\xe0\x00@'
p118
tp119
baa(lp120
(lp121
I100
aF0.01
aF0.6
aF0.001
aag4
(g8
S'\x1b\xa8B\x95\x7f,\xf5?'
p122
tp123
Rp124
ag14
(g15
(I0
tp125
g17
tp126
Rp127
(I1
(tg8
I00
S'\xae\xb91\xd6U\xfb\xf9?'
p128
tp129
bag4
(g8
S'K-\xbc\x05JR\xf8?'
p130
tp131
Rp132
ag14
(g15
(I0
tp133
g17
tp134
Rp135
(I1
(tg8
I00
S'y\x95\x8a\x03#\x07\x01@'
p136
tp137
baa(lp138
(lp139
I100
aF0.01
aF0.8
aF0.001
aag4
(g8
S'A\xf1\xda\xf1o\x18\xf5?'
p140
tp141
Rp142
ag14
(g15
(I0
tp143
g17
tp144
Rp145
(I1
(tg8
I00
S'\xf1)\x80\xabF\xf4\xf9?'
p146
tp147
bag4
(g8
S'\xac\xde\xc2=-\x93\xf8?'
p148
tp149
Rp150
ag14
(g15
(I0
tp151
g17
tp152
Rp153
(I1
(tg8
I00
S'd\xe9\xf2C\xe64\x01@'
p154
tp155
baa(lp156
(lp157
I100
aF0.01
aF0.1
aF0.0001
aag4
(g8
S'\x13\x14i\xfc\n\xae\xf4?'
p158
tp159
Rp160
ag14
(g15
(I0
tp161
g17
tp162
Rp163
(I1
(tg8
I00
S'\x01\xd4\x01X\xc1k\xf5?'
p164
tp165
bag4
(g8
S'\xbb\x84U\xcc\xd5D\xf8?'
p166
tp167
Rp168
ag14
(g15
(I0
tp169
g17
tp170
Rp171
(I1
(tg8
I00
S'\x87\xd4\xcc\x19nW\xfe?'
p172
tp173
baa(lp174
(lp175
I100
aF0.01
aF0.3
aF0.0001
aag4
(g8
S'\xd4Vy\x90\xed\x9a\xf4?'
p176
tp177
Rp178
ag14
(g15
(I0
tp179
g17
tp180
Rp181
(I1
(tg8
I00
S'\xb5\x08\x1a7`I\xf5?'
p182
tp183
bag4
(g8
S'i\x9f$\xf5\xf1\xed\xf7?'
p184
tp185
Rp186
ag14
(g15
(I0
tp187
g17
tp188
Rp189
(I1
(tg8
I00
S"\xd0\x1b'\xd9?\xa6\xfd?"
p190
tp191
baa(lp192
(lp193
I100
aF0.01
aF0.6
aF0.0001
aag4
(g8
S'={6\x08"\x89\xf4?'
p194
tp195
Rp196
ag14
(g15
(I0
tp197
g17
tp198
Rp199
(I1
(tg8
I00
S'\xac\x1c\xaa/K&\xf5?'
p200
tp201
bag4
(g8
S'\xa5\x18\xe6\x1dg4\xf8?'
p202
tp203
Rp204
ag14
(g15
(I0
tp205
g17
tp206
Rp207
(I1
(tg8
I00
S'0\x9dg\x96\n\x07\xfe?'
p208
tp209
baa(lp210
(lp211
I100
aF0.01
aF0.8
aF0.0001
aag4
(g8
S'\xb8\x14\x17\x1a\n\xd4\xf4?'
p212
tp213
Rp214
ag14
(g15
(I0
tp215
g17
tp216
Rp217
(I1
(tg8
I00
S'\xbf:6W\xa3u\xf5?'
p218
tp219
bag4
(g8
S'\xd6h\xb9\xcbu\x19\xf8?'
p220
tp221
Rp222
ag14
(g15
(I0
tp223
g17
tp224
Rp225
(I1
(tg8
I00
S'\x89\x8b\x85\x9cU\x01\xfe?'
p226
tp227
baa(lp228
(lp229
I50
aF0.01
aF0.1
aF0.01
aag4
(g8
S'\x17\xd6^-\x98\x9e\xf6?'
p230
tp231
Rp232
ag14
(g15
(I0
tp233
g17
tp234
Rp235
(I1
(tg8
I00
S'\x04\xc0\xb54\xf4\x8a\x04@'
p236
tp237
bag4
(g8
S'&`\xbb\xd8\xbfA\xf8?'
p238
tp239
Rp240
ag14
(g15
(I0
tp241
g17
tp242
Rp243
(I1
(tg8
I00
S'`AM%\x16(\x07@'
p244
tp245
baa(lp246
(lp247
I50
aF0.01
aF0.3
aF0.01
aag4
(g8
S'\xeb\x05\x07Y\xa7\xee\xf6?'
p248
tp249
Rp250
ag14
(g15
(I0
tp251
g17
tp252
Rp253
(I1
(tg8
I00
S'<\x1e\x13\xa1\xa2\x0c\x05@'
p254
tp255
bag4
(g8
S'\x93\x83\xa7\xca/\xb9\xf8?'
p256
tp257
Rp258
ag14
(g15
(I0
tp259
g17
tp260
Rp261
(I1
(tg8
I00
S'0QF\x9f%\xb7\x07@'
p262
tp263
baa(lp264
(lp265
I50
aF0.01
aF0.6
aF0.01
aag4
(g8
S'\x94\xb1\xe2\x94\xcc\x97\xf6?'
p266
tp267
Rp268
ag14
(g15
(I0
tp269
g17
tp270
Rp271
(I1
(tg8
I00
S'F\xbb\x9f\x1aC\xb9\x04@'
p272
tp273
bag4
(g8
S'\x9f$,\xb1\x7f=\xf8?'
p274
tp275
Rp276
ag14
(g15
(I0
tp277
g17
tp278
Rp279
(I1
(tg8
I00
S'\xc08\xdb\x04\xac\\\x07@'
p280
tp281
baa(lp282
(lp283
I50
aF0.01
aF0.8
aF0.01
aag4
(g8
S'\xc5\x1at\x01\x81\xd3\xf6?'
p284
tp285
Rp286
ag14
(g15
(I0
tp287
g17
tp288
Rp289
(I1
(tg8
I00
S'\xc0\x92q\x96\xa2\xc2\x04@'
p290
tp291
bag4
(g8
S'\xe1-\xce;\xdb\\\xf8?'
p292
tp293
Rp294
ag14
(g15
(I0
tp295
g17
tp296
Rp297
(I1
(tg8
I00
S'U\xa3\xf0\xa8JF\x07@'
p298
tp299
baa(lp300
(lp301
I50
aF0.01
aF0.1
aF0.001
aag4
(g8
S'\xfb\xa6\xc2\xc9\xf4\xab\xf4?'
p302
tp303
Rp304
ag14
(g15
(I0
tp305
g17
tp306
Rp307
(I1
(tg8
I00
S'\x8dm\xe0g\xb1x\xf8?'
p308
tp309
bag4
(g8
S'P\x8ag}\xe7\x8a\xf7?'
p310
tp311
Rp312
ag14
(g15
(I0
tp313
g17
tp314
Rp315
(I1
(tg8
I00
S'?\xa8S\x85v\xad\xff?'
p316
tp317
baa(lp318
(lp319
I50
aF0.01
aF0.3
aF0.001
aag4
(g8
S'\xde\x8d\xa9\xb0\xde\x99\xf4?'
p320
tp321
Rp322
ag14
(g15
(I0
tp323
g17
tp324
Rp325
(I1
(tg8
I00
S'\x1c\xf5\x85\xa9\x07$\xf8?'
p326
tp327
bag4
(g8
S'\x93\xea \xf0\xf8\xca\xf7?'
p328
tp329
Rp330
ag14
(g15
(I0
tp331
g17
tp332
Rp333
(I1
(tg8
I00
S'\x90e\xfe+\x81\x1f\x00@'
p334
tp335
baa(lp336
(lp337
I50
aF0.01
aF0.6
aF0.001
aag4
(g8
S'%f+\xe7em\xf4?'
p338
tp339
Rp340
ag14
(g15
(I0
tp341
g17
tp342
Rp343
(I1
(tg8
I00
S'\x92\x1e\x92\xc8\x9d\x13\xf8?'
p344
tp345
bag4
(g8
S'y\xe2\x0e\xe1\xd7\x8c\xf7?'
p346
tp347
Rp348
ag14
(g15
(I0
tp349
g17
tp350
Rp351
(I1
(tg8
I00
S'\x1d\x8c\xb8\x10\xea\xee\xff?'
p352
tp353
baa(lp354
(lp355
I50
aF0.01
aF0.8
aF0.001
aag4
(g8
S'\xa3\xe5\xc0\xc4\xcb\xa5\xf4?'
p356
tp357
Rp358
ag14
(g15
(I0
tp359
g17
tp360
Rp361
(I1
(tg8
I00
S'J\x89\\l\xedi\xf8?'
p362
tp363
bag4
(g8
S'\x8btACm\xce\xf7?'
p364
tp365
Rp366
ag14
(g15
(I0
tp367
g17
tp368
Rp369
(I1
(tg8
I00
S'\xfd-\x16J\x8bC\x00@'
p370
tp371
baa(lp372
(lp373
I50
aF0.01
aF0.1
aF0.0001
aag4
(g8
S'A]\x91q\x8b&\xf4?'
p374
tp375
Rp376
ag14
(g15
(I0
tp377
g17
tp378
Rp379
(I1
(tg8
I00
S'\xc2\x18=1\xd9q\xf4?'
p380
tp381
bag4
(g8
S'\xb9\x07\x0b\x04nt\xf7?'
p382
tp383
Rp384
ag14
(g15
(I0
tp385
g17
tp386
Rp387
(I1
(tg8
I00
S':d\x8b\xb8\xe5\xce\xfc?'
p388
tp389
baa(lp390
(lp391
I50
aF0.01
aF0.3
aF0.0001
aag4
(g8
S'\xcax\x8f\\?i\xf4?'
p392
tp393
Rp394
ag14
(g15
(I0
tp395
g17
tp396
Rp397
(I1
(tg8
I00
S'b\xd7\xd4\xf4\x99\xe5\xf4?'
p398
tp399
bag4
(g8
S'\xba\xf0\x00\xc3.F\xf7?'
p400
tp401
Rp402
ag14
(g15
(I0
tp403
g17
tp404
Rp405
(I1
(tg8
I00
S'\x9f\x07\x1e=\xed\x8d\xfc?'
p406
tp407
baa(lp408
(lp409
I50
aF0.01
aF0.6
aF0.0001
aag4
(g8
S'\xaa\xa3\xf1\x07\x1ej\xf4?'
p410
tp411
Rp412
ag14
(g15
(I0
tp413
g17
tp414
Rp415
(I1
(tg8
I00
S'o\x9aW27\xfb\xf4?'
p416
tp417
bag4
(g8
S'z\xc7\xa5R\xc2\xf1\xf7?'
p418
tp419
Rp420
ag14
(g15
(I0
tp421
g17
tp422
Rp423
(I1
(tg8
I00
S'\xa76\x0eGB\xc7\xfd?'
p424
tp425
baa(lp426
(lp427
I50
aF0.01
aF0.8
aF0.0001
aag4
(g8
S'\x1f{\xdc4\xa1D\xf4?'
p428
tp429
Rp430
ag14
(g15
(I0
tp431
g17
tp432
Rp433
(I1
(tg8
I00
S'\xc3\xaf\xdbC\xe0\xa9\xf4?'
p434
tp435
bag4
(g8
S'Z\xe5*p\xc3\xb6\xf7?'
p436
tp437
Rp438
ag14
(g15
(I0
tp439
g17
tp440
Rp441
(I1
(tg8
I00
S'\xc1\xe1\x19@l7\xfd?'
p442
tp443
baa(lp444
(lp445
I50
aF0.03
aF0.1
aF0.01
aag4
(g8
S'\xec\x1d\x9aI\r\xb6\xf5?'
p446
tp447
Rp448
ag14
(g15
(I0
tp449
g17
tp450
Rp451
(I1
(tg8
I00
S'\xb0\x9c\xa8#\xeb\xd1\x03@'
p452
tp453
bag4
(g8
S'\xef\x16\x15\xb2\x81)\xf7?'
p454
tp455
Rp456
ag14
(g15
(I0
tp457
g17
tp458
Rp459
(I1
(tg8
I00
S' \xc5\x9e\xeaU9\x06@'
p460
tp461
baa(lp462
(lp463
I50
aF0.03
aF0.3
aF0.01
aag4
(g8
S'{lJ\xbe\xf3\xac\xf5?'
p464
tp465
Rp466
ag14
(g15
(I0
tp467
g17
tp468
Rp469
(I1
(tg8
I00
S'\xbe_\xba\x0f\xbd\xd9\x03@'
p470
tp471
bag4
(g8
S'\x04 f\x17\xea&\xf7?'
p472
tp473
Rp474
ag14
(g15
(I0
tp475
g17
tp476
Rp477
(I1
(tg8
I00
S'\xe9b!\xd1G=\x06@'
p478
tp479
baa(lp480
(lp481
I50
aF0.03
aF0.1
aF0.001
aag4
(g8
S'\xbbb\xa5\xd0\x85\xff\xf1?'
p482
tp483
Rp484
ag14
(g15
(I0
tp485
g17
tp486
Rp487
(I1
(tg8
I00
S'?i,\x06\xd5\x19\xf5?'
p488
tp489
bag4
(g8
S'^\xef\xc8aj|\xf5?'
p490
tp491
Rp492
ag14
(g15
(I0
tp493
g17
tp494
Rp495
(I1
(tg8
I00
S'Z\x87J\xe7\xcf\xf2\xfd?'
p496
tp497
baa(lp498
(lp499
I50
aF0.03
aF0.3
aF0.001
aag4
(g8
S'\x81\x8fm\xc3\xb9\xb7\xf1?'
p500
tp501
Rp502
ag14
(g15
(I0
tp503
g17
tp504
Rp505
(I1
(tg8
I00
S'\xc3k\xa7&Y\xbc\xf4?'
p506
tp507
bag4
(g8
S'\x1bFm\x01\x9co\xf5?'
p508
tp509
Rp510
ag14
(g15
(I0
tp511
g17
tp512
Rp513
(I1
(tg8
I00
S"\x0c@'\xd0h\xeb\xfd?"
p514
tp515
baa(lp516
(lp517
I50
aF0.03
aF0.1
aF0.0001
aag4
(g8
S'+\xba\xe4\x87\xff3\xf1?'
p518
tp519
Rp520
ag14
(g15
(I0
tp521
g17
tp522
Rp523
(I1
(tg8
I00
S'lR\xcb\x02\xe8$\xf0?'
p524
tp525
bag4
(g8
S'\xff\x14J\xd8\x83A\xf5?'
p526
tp527
Rp528
ag14
(g15
(I0
tp529
g17
tp530
Rp531
(I1
(tg8
I00
S'6\x00"\xdc\xb4Y\xfa?'
p532
tp533
baa(lp534
(lp535
I50
aF0.03
aF0.3
aF0.0001
aag4
(g8
S'C\x94\x7fwf\x0f\xf1?'
p536
tp537
Rp538
ag14
(g15
(I0
tp539
g17
tp540
Rp541
(I1
(tg8
I00
S'\x16\xc9"\x07\xdd_\xef?'
p542
tp543
bag4
(g8
S'n\xab\x1a|lu\xf5?'
p544
tp545
Rp546
ag14
(g15
(I0
tp547
g17
tp548
Rp549
(I1
(tg8
I00
S'\xaa\xa3\x1e\xc2\x8ac\xfa?'
p550
tp551
baa(lp552
(lp553
I25
aF0.01
aF0.1
aF0.01
aag4
(g8
S'\x0e\x91\xa2p\x84\xd4\xf5?'
p554
tp555
Rp556
ag14
(g15
(I0
tp557
g17
tp558
Rp559
(I1
(tg8
I00
S'\x9bl\xeb\xd4j\xc5\x04@'
p560
tp561
bag4
(g8
S'\x0c\xac\\[\xa8\xb8\xf7?'
p562
tp563
Rp564
ag14
(g15
(I0
tp565
g17
tp566
Rp567
(I1
(tg8
I00
S'\xd4\x00\xfd2\xf5\xa1\x07@'
p568
tp569
baa(lp570
(lp571
I25
aF0.01
aF0.3
aF0.01
aag4
(g8
S'`\x1b2L\xe9\xd8\xf5?'
p572
tp573
Rp574
ag14
(g15
(I0
tp575
g17
tp576
Rp577
(I1
(tg8
I00
S'\x82\xeft\xd0\x9c\xb2\x04@'
p578
tp579
bag4
(g8
S'\x9e\xa1\xef\x1d\x9e\x87\xf7?'
p580
tp581
Rp582
ag14
(g15
(I0
tp583
g17
tp584
Rp585
(I1
(tg8
I00
S'\x18\xb3\x95\xbd\x1a\\\x07@'
p586
tp587
baa(lp588
(lp589
I25
aF0.01
aF0.6
aF0.01
aag4
(g8
S'\x07,\xf2;\xf5\xe2\xf5?'
p590
tp591
Rp592
ag14
(g15
(I0
tp593
g17
tp594
Rp595
(I1
(tg8
I00
S'\xf5\x02\x9c\xac\xf4B\x05@'
p596
tp597
bag4
(g8
S'\xf1A\xa9\t\xee\xc4\xf7?'
p598
tp599
Rp600
ag14
(g15
(I0
tp601
g17
tp602
Rp603
(I1
(tg8
I00
S'\xceZZS\xb4\t\x08@'
p604
tp605
baa(lp606
(lp607
I25
aF0.01
aF0.8
aF0.01
aag4
(g8
S'S\x0bN\x97j\xad\xf5?'
p608
tp609
Rp610
ag14
(g15
(I0
tp611
g17
tp612
Rp613
(I1
(tg8
I00
S'\x14-\xf1h\xd8\xd4\x04@'
p614
tp615
bag4
(g8
S'a\xcd\xd1\x99\xd8\x93\xf7?'
p616
tp617
Rp618
ag14
(g15
(I0
tp619
g17
tp620
Rp621
(I1
(tg8
I00
S'\x1bu\xc7\x88u\xa6\x07@'
p622
tp623
baa(lp624
(lp625
I25
aF0.01
aF0.1
aF0.001
aag4
(g8
S'\x11\x16\xdbO\xca2\xf4?'
p626
tp627
Rp628
ag14
(g15
(I0
tp629
g17
tp630
Rp631
(I1
(tg8
I00
S'x~\x1b\xc4^P\xf7?'
p632
tp633
bag4
(g8
S'/\xe4\x06W\xb74\xf7?'
p634
tp635
Rp636
ag14
(g15
(I0
tp637
g17
tp638
Rp639
(I1
(tg8
I00
S'Tw\x94\xdc\xdc\xfe\xfe?'
p640
tp641
baa(lp642
(lp643
I25
aF0.01
aF0.3
aF0.001
aag4
(g8
S'\xe3\x93\x82\x03Z\x03\xf4?'
p644
tp645
Rp646
ag14
(g15
(I0
tp647
g17
tp648
Rp649
(I1
(tg8
I00
S':\x0f\x9doP\xdc\xf6?'
p650
tp651
bag4
(g8
S'|\x9d\xd8\xbc\x8a\x90\xf6?'
p652
tp653
Rp654
ag14
(g15
(I0
tp655
g17
tp656
Rp657
(I1
(tg8
I00
S'\xe0\x16\xb6F+\xfa\xfd?'
p658
tp659
baa(lp660
(lp661
I25
aF0.01
aF0.6
aF0.001
aag4
(g8
S'17|\x16\xa6\x05\xf4?'
p662
tp663
Rp664
ag14
(g15
(I0
tp665
g17
tp666
Rp667
(I1
(tg8
I00
S'\x19R[\x81\xaf\xf8\xf6?'
p668
tp669
bag4
(g8
S'\xd6\xe3n\xe7\xe0\xf5\xf6?'
p670
tp671
Rp672
ag14
(g15
(I0
tp673
g17
tp674
Rp675
(I1
(tg8
I00
S'\xc6x\x8f\x99\x86\x89\xfe?'
p676
tp677
baa(lp678
(lp679
I25
aF0.01
aF0.8
aF0.001
aag4
(g8
S'k\xcf^6\xdf\x02\xf4?'
p680
tp681
Rp682
ag14
(g15
(I0
tp683
g17
tp684
Rp685
(I1
(tg8
I00
S'VS\xc8$\xc1\xf5\xf6?'
p686
tp687
bag4
(g8
S'\x96\xd9\x88t\x83\x9a\xf6?'
p688
tp689
Rp690
ag14
(g15
(I0
tp691
g17
tp692
Rp693
(I1
(tg8
I00
S'zKa\x80\xf4\x01\xfe?'
p694
tp695
baa(lp696
(lp697
I25
aF0.01
aF0.1
aF0.0001
aag4
(g8
S'5n\xdf\xf9\xff\xe4\xf3?'
p698
tp699
Rp700
ag14
(g15
(I0
tp701
g17
tp702
Rp703
(I1
(tg8
I00
S'\x87\xa7m\xdfW\xe7\xf3?'
p704
tp705
bag4
(g8
S'\xd9S@QR\xd4\xf6?'
p706
tp707
Rp708
ag14
(g15
(I0
tp709
g17
tp710
Rp711
(I1
(tg8
I00
S'\x1fJ\r\xe4\t\xb1\xfb?'
p712
tp713
baa(lp714
(lp715
I25
aF0.01
aF0.3
aF0.0001
aag4
(g8
S"-'\xd9\xc2\xa7\xae\xf3?"
p716
tp717
Rp718
ag14
(g15
(I0
tp719
g17
tp720
Rp721
(I1
(tg8
I00
S'x{\x9a\xe2T\xd2\xf3?'
p722
tp723
bag4
(g8
S"u\x95\x96\xb3\xdb'\xf6?"
p724
tp725
Rp726
ag14
(g15
(I0
tp727
g17
tp728
Rp729
(I1
(tg8
I00
S'\xe8\xa7W.\xde>\xfa?'
p730
tp731
baa(lp732
(lp733
I25
aF0.01
aF0.6
aF0.0001
aag4
(g8
S'\x93\xcfldO\x03\xf4?'
p734
tp735
Rp736
ag14
(g15
(I0
tp737
g17
tp738
Rp739
(I1
(tg8
I00
S'\x19!v\\\x16k\xf4?'
p740
tp741
bag4
(g8
S'\xc7\xdf\x99\xab\xfa\xfa\xf6?'
p742
tp743
Rp744
ag14
(g15
(I0
tp745
g17
tp746
Rp747
(I1
(tg8
I00
S'\r\x13\x83\xce\xc6\xe7\xfb?'
p748
tp749
baa(lp750
(lp751
I25
aF0.01
aF0.8
aF0.0001
aag4
(g8
S'\xf5[\xc8|\xdb\xb6\xf3?'
p752
tp753
Rp754
ag14
(g15
(I0
tp755
g17
tp756
Rp757
(I1
(tg8
I00
S'a+\x91\xb3,\xfc\xf3?'
p758
tp759
bag4
(g8
S'\x8a\xe1\xf69\x95\xa2\xf6?'
p760
tp761
Rp762
ag14
(g15
(I0
tp763
g17
tp764
Rp765
(I1
(tg8
I00
S'\xe7\x7f\x16\xbc\x15y\xfb?'
p766
tp767
baa(lp768
(lp769
I25
aF0.03
aF0.1
aF0.01
aag4
(g8
S'%\x8d\xb7\xc3\xcbN\xf5?'
p770
tp771
Rp772
ag14
(g15
(I0
tp773
g17
tp774
Rp775
(I1
(tg8
I00
S'\xee\xa4;\xd8fV\x04@'
p776
tp777
bag4
(g8
S'1\xc0b\xf9C\xe0\xf6?'
p778
tp779
Rp780
ag14
(g15
(I0
tp781
g17
tp782
Rp783
(I1
(tg8
I00
S'\xa4?\xed\x02(\xe3\x06@'
p784
tp785
baa(lp786
(lp787
I25
aF0.03
aF0.3
aF0.01
aag4
(g8
S'\xb9<\xb5\xe3\xc23\xf5?'
p788
tp789
Rp790
ag14
(g15
(I0
tp791
g17
tp792
Rp793
(I1
(tg8
I00
S'\xcad\x8eF\x0fF\x04@'
p794
tp795
bag4
(g8
S'\xafX\xc7\xf5d\xdb\xf6?'
p796
tp797
Rp798
ag14
(g15
(I0
tp799
g17
tp800
Rp801
(I1
(tg8
I00
S'j\nH\xdd\x13\xda\x06@'
p802
tp803
baa(lp804
(lp805
I25
aF0.03
aF0.6
aF0.01
aag4
(g8
S'\r\x05;\x11\xb0K\xf5?'
p806
tp807
Rp808
ag14
(g15
(I0
tp809
g17
tp810
Rp811
(I1
(tg8
I00
S'\x9dHa\xf2\xa6L\x04@'
p812
tp813
bag4
(g8
S'\xdc\x84\xc4\xe6\xf7\xe6\xf6?'
p814
tp815
Rp816
ag14
(g15
(I0
tp817
g17
tp818
Rp819
(I1
(tg8
I00
S'\xe9\xc3\xa5\xeb\x8c\xda\x06@'
p820
tp821
baa(lp822
(lp823
I25
aF0.03
aF0.8
aF0.01
aag4
(g8
S'\xc1\x7f2\xf7M\\\xf5?'
p824
tp825
Rp826
ag14
(g15
(I0
tp827
g17
tp828
Rp829
(I1
(tg8
I00
S'\xea\xe1)\xac\xc5K\x04@'
p830
tp831
bag4
(g8
S'\x08#\xa6\\\xfd\xf4\xf6?'
p832
tp833
Rp834
ag14
(g15
(I0
tp835
g17
tp836
Rp837
(I1
(tg8
I00
S'\xe2S\xc5{\x12\xd9\x06@'
p838
tp839
baa(lp840
(lp841
I25
aF0.03
aF0.1
aF0.001
aag4
(g8
S'\xb3k\xcc\x9a\xcb\x06\xf2?'
p842
tp843
Rp844
ag14
(g15
(I0
tp845
g17
tp846
Rp847
(I1
(tg8
I00
S'\xeb\x03\xe2mv\xbf\xf4?'
p848
tp849
bag4
(g8
S'\xca\x8e\xc14\xb2\xc7\xf5?'
p850
tp851
Rp852
ag14
(g15
(I0
tp853
g17
tp854
Rp855
(I1
(tg8
I00
S'1\xfdx\xf6\x8c\xda\xfd?'
p856
tp857
baa(lp858
(lp859
I25
aF0.03
aF0.3
aF0.001
aag4
(g8
S'\x04\xb9E\xb6\x8a\xf7\xf1?'
p860
tp861
Rp862
ag14
(g15
(I0
tp863
g17
tp864
Rp865
(I1
(tg8
I00
S'\xfe\x1b0\x02\xa3\x93\xf4?'
p866
tp867
bag4
(g8
S'7~\xf6h\xe9\x16\xf5?'
p868
tp869
Rp870
ag14
(g15
(I0
tp871
g17
tp872
Rp873
(I1
(tg8
I00
S'\xf7~Ad\xe2\xa0\xfc?'
p874
tp875
baa(lp876
(lp877
I25
aF0.03
aF0.6
aF0.001
aag4
(g8
S'}\xf2\xe8\x8bC\xe4\xf1?'
p878
tp879
Rp880
ag14
(g15
(I0
tp881
g17
tp882
Rp883
(I1
(tg8
I00
S'Si\x83o\xce\x8e\xf4?'
p884
tp885
bag4
(g8
S'\xad\x95Z\xf2v\xb6\xf5?'
p886
tp887
Rp888
ag14
(g15
(I0
tp889
g17
tp890
Rp891
(I1
(tg8
I00
S'\xdc\x08\x9b\xdcT\xf6\xfd?'
p892
tp893
baa(lp894
(lp895
I25
aF0.03
aF0.8
aF0.001
aag4
(g8
S'\x19I\xa6\xef\x02\xb3\xf1?'
p896
tp897
Rp898
ag14
(g15
(I0
tp899
g17
tp900
Rp901
(I1
(tg8
I00
S'K\x87\xab\x8cN\x7f\xf4?'
p902
tp903
bag4
(g8
S'\x85hX\x0c\x9aV\xf5?'
p904
tp905
Rp906
ag14
(g15
(I0
tp907
g17
tp908
Rp909
(I1
(tg8
I00
S'\x83\x98\x96u\x9b\xb7\xfd?'
p910
tp911
baa(lp912
(lp913
I25
aF0.03
aF0.1
aF0.0001
aag4
(g8
S'y\x04!\xa8\xfcI\xf1?'
p914
tp915
Rp916
ag14
(g15
(I0
tp917
g17
tp918
Rp919
(I1
(tg8
I00
S'\x98d\xc4\x00\x9aJ\xf0?'
p920
tp921
bag4
(g8
S'Hy7\x02R\x06\xf5?'
p922
tp923
Rp924
ag14
(g15
(I0
tp925
g17
tp926
Rp927
(I1
(tg8
I00
S'\xa0i\x88\xd2-\xd0\xf9?'
p928
tp929
baa(lp930
(lp931
I25
aF0.03
aF0.3
aF0.0001
aag4
(g8
S'{\x92\x8ec0\x11\xf1?'
p932
tp933
Rp934
ag14
(g15
(I0
tp935
g17
tp936
Rp937
(I1
(tg8
I00
S':\x03\xde\xbf\xbc\xee\xef?'
p938
tp939
bag4
(g8
S'c\xe9tbw\x11\xf5?'
p940
tp941
Rp942
ag14
(g15
(I0
tp943
g17
tp944
Rp945
(I1
(tg8
I00
S'%M\x04\xd2\x94\x85\xf9?'
p946
tp947
baa(lp948
(lp949
I25
aF0.03
aF0.6
aF0.0001
aag4
(g8
S'\xd2\xcb\xda\x14\x81\x16\xf1?'
p950
tp951
Rp952
ag14
(g15
(I0
tp953
g17
tp954
Rp955
(I1
(tg8
I00
S'\xfe\xfc\xa9\x0fV\x1d\xf0?'
p956
tp957
bag4
(g8
S'\xb0\x12\xc6\xf2Ux\xf5?'
p958
tp959
Rp960
ag14
(g15
(I0
tp961
g17
tp962
Rp963
(I1
(tg8
I00
S'<\xc0\t\xb2cf\xfa?'
p964
tp965
baa(lp966
(lp967
I25
aF0.03
aF0.8
aF0.0001
aag4
(g8
S'\xee\xc7\xa9X\x08b\xf1?'
p968
tp969
Rp970
ag14
(g15
(I0
tp971
g17
tp972
Rp973
(I1
(tg8
I00
S'/\xef\x95\tM-\xf0?'
p974
tp975
bag4
(g8
S'+\x85\xcce\xa9\xad\xf4?'
p976
tp977
Rp978
ag14
(g15
(I0
tp979
g17
tp980
Rp981
(I1
(tg8
I00
S'\xd4\x10\x14\x8c\x04\x0b\xf9?'
p982
tp983
baa(lp984
(lp985
I25
aF0.05
aF0.1
aF0.01
aag4
(g8
S'cC\xc2\xe7\xdeG\xf5?'
p986
tp987
Rp988
ag14
(g15
(I0
tp989
g17
tp990
Rp991
(I1
(tg8
I00
S'\x0cp\\\x9alA\x04@'
p992
tp993
bag4
(g8
S"\xb2\xc0<'\xab\xd1\xf6?"
p994
tp995
Rp996
ag14
(g15
(I0
tp997
g17
tp998
Rp999
(I1
(tg8
I00
S'\xf2\xcc\x9c\x1f\x19\xc4\x06@'
p1000
tp1001
baa(lp1002
(lp1003
I25
aF0.05
aF0.3
aF0.01
aag4
(g8
S"']\\\xc4I<\xf5?"
p1004
tp1005
Rp1006
ag14
(g15
(I0
tp1007
g17
tp1008
Rp1009
(I1
(tg8
I00
S'\x08\xc9\xe3\xca\x1eF\x04@'
p1010
tp1011
bag4
(g8
S'\x12\xb7`\x1a\xbb\xd1\xf6?'
p1012
tp1013
Rp1014
ag14
(g15
(I0
tp1015
g17
tp1016
Rp1017
(I1
(tg8
I00
S'\xbe\xdb\x13*\x16\xd2\x06@'
p1018
tp1019
baa(lp1020
(lp1021
I25
aF0.05
aF0.6
aF0.01
aag4
(g8
S'\xf3o\x01^\x109\xf5?'
p1022
tp1023
Rp1024
ag14
(g15
(I0
tp1025
g17
tp1026
Rp1027
(I1
(tg8
I00
S'\xb6\xd6\xb54z=\x04@'
p1028
tp1029
bag4
(g8
S's\xd5\xba\xc4K\xdb\xf6?'
p1030
tp1031
Rp1032
ag14
(g15
(I0
tp1033
g17
tp1034
Rp1035
(I1
(tg8
I00
S'\xee;\xb8\xd2\xf1\xd0\x06@'
p1036
tp1037
baa(lp1038
(lp1039
I25
aF0.05
aF0.1
aF0.001
aag4
(g8
S'm\xd9e\xb5\xe1\x11\xf1?'
p1040
tp1041
Rp1042
ag14
(g15
(I0
tp1043
g17
tp1044
Rp1045
(I1
(tg8
I00
S'L`\x11\x02.\xc8\xf3?'
p1046
tp1047
bag4
(g8
S'\xc1I\xb3\x0f,\xea\xf4?'
p1048
tp1049
Rp1050
ag14
(g15
(I0
tp1051
g17
tp1052
Rp1053
(I1
(tg8
I00
S'P\x16X\x02T\x12\xfd?'
p1054
tp1055
baa(lp1056
(lp1057
I25
aF0.05
aF0.3
aF0.001
aag4
(g8
S'~\xd5\xe6\x87\xfb\x19\xf1?'
p1058
tp1059
Rp1060
ag14
(g15
(I0
tp1061
g17
tp1062
Rp1063
(I1
(tg8
I00
S'\x88<\x83\xabP\xd0\xf3?'
p1064
tp1065
bag4
(g8
S'\x8b\x9d\x8dT\x07\xbc\xf4?'
p1066
tp1067
Rp1068
ag14
(g15
(I0
tp1069
g17
tp1070
Rp1071
(I1
(tg8
I00
S'\x97L\x83\xf1L\xc2\xfc?'
p1072
tp1073
baa(lp1074
(lp1075
I25
aF0.05
aF0.6
aF0.001
aag4
(g8
S'\xceM\x06t:\xe2\xf0?'
p1076
tp1077
Rp1078
ag14
(g15
(I0
tp1079
g17
tp1080
Rp1081
(I1
(tg8
I00
S'.\xf8I\xce\xe2\xa5\xf3?'
p1082
tp1083
bag4
(g8
S'\xf2\x06LL\xba\xbd\xf4?'
p1084
tp1085
Rp1086
ag14
(g15
(I0
tp1087
g17
tp1088
Rp1089
(I1
(tg8
I00
S'\xf0\x83\x16\x01b\xfc\xfc?'
p1090
tp1091
baa(lp1092
(lp1093
I25
aF0.05
aF0.1
aF0.0001
aag4
(g8
S'\x02\x85\x98\xd4]\x93\xf0?'
p1094
tp1095
Rp1096
ag14
(g15
(I0
tp1097
g17
tp1098
Rp1099
(I1
(tg8
I00
S'\x94\xb45W0\xe1\xed?'
p1100
tp1101
bag4
(g8
S'\xa2\xee\xf5\xd9"\x04\xf5?'
p1102
tp1103
Rp1104
ag14
(g15
(I0
tp1105
g17
tp1106
Rp1107
(I1
(tg8
I00
S'\xc9\xc6\x08\x85\x08\\\xf9?'
p1108
tp1109
baa(lp1110
(lp1111
I25
aF0.05
aF0.3
aF0.0001
aag4
(g8
S'\x1fuow?&\xf0?'
p1112
tp1113
Rp1114
ag14
(g15
(I0
tp1115
g17
tp1116
Rp1117
(I1
(tg8
I00
S'\x9b=\xe3\x1c\x953\xed?'
p1118
tp1119
bag4
(g8
S'\x19\x92\x7fV\xc4\xe4\xf4?'
p1120
tp1121
Rp1122
ag14
(g15
(I0
tp1123
g17
tp1124
Rp1125
(I1
(tg8
I00
S')6\x91GR[\xf9?'
p1126
tp1127
baa(lp1128
(lp1129
I25
aF0.05
aF0.6
aF0.0001
aag4
(g8
S'2\xce\x7fB\x1e\x08\xf0?'
p1130
tp1131
Rp1132
ag14
(g15
(I0
tp1133
g17
tp1134
Rp1135
(I1
(tg8
I00
S'\xb6d\x16\x1a\x8f\xf1\xec?'
p1136
tp1137
bag4
(g8
S'\x88\xcc\x9e\xe39\x00\xf5?'
p1138
tp1139
Rp1140
ag14
(g15
(I0
tp1141
g17
tp1142
Rp1143
(I1
(tg8
I00
S'M\xfb&\x0c\xfb\xbc\xf9?'
p1144
tp1145
baaa(lp1146
(lp1147
g3
ag4
(g8
S'\x00\xbd+\xec\x19\x1c\xf8?'
p1148
tp1149
Rp1150
ag14
(g15
(I0
tp1151
g17
tp1152
Rp1153
(I1
(tg8
I00
S'T$#\x96\xc1\xe8\x05@'
p1154
tp1155
bag4
(g8
S'T\x97oz\xb1\xf3\xf8?'
p1156
tp1157
Rp1158
ag14
(g15
(I0
tp1159
g17
tp1160
Rp1161
(I1
(tg8
I00
S'w\xd4\xae\xf1\x88\xad\x06@'
p1162
tp1163
baa(lp1164
g31
ag4
(g8
S'\xfb\xeaF\x85\x93\x10\xf8?'
p1165
tp1166
Rp1167
ag14
(g15
(I0
tp1168
g17
tp1169
Rp1170
(I1
(tg8
I00
S'\x05\xd5\x00\xfd\xb9\xe9\x05@'
p1171
tp1172
bag4
(g8
S'o\x01\x0f\x8c\x07\xec\xf8?'
p1173
tp1174
Rp1175
ag14
(g15
(I0
tp1176
g17
tp1177
Rp1178
(I1
(tg8
I00
S'4\xe6\x8aO*\xbd\x06@'
p1179
tp1180
baa(lp1181
g49
ag4
(g8
S'\xafJ\x97\x98\x83\x05\xf8?'
p1182
tp1183
Rp1184
ag14
(g15
(I0
tp1185
g17
tp1186
Rp1187
(I1
(tg8
I00
S'z5\x84\x80\x95\xd1\x05@'
p1188
tp1189
bag4
(g8
S'\xdd\xa7\xb7\xc18\xd5\xf8?'
p1190
tp1191
Rp1192
ag14
(g15
(I0
tp1193
g17
tp1194
Rp1195
(I1
(tg8
I00
S'_\xd5[\x97\xda\x8d\x06@'
p1196
tp1197
baa(lp1198
g67
ag4
(g8
S'\xa5\x17\xc0\xach\xd8\xf7?'
p1199
tp1200
Rp1201
ag14
(g15
(I0
tp1202
g17
tp1203
Rp1204
(I1
(tg8
I00
S'\xb5!%{/\xad\x05@'
p1205
tp1206
bag4
(g8
S'\xdb\xce\x8e+\x8b\xa1\xf8?'
p1207
tp1208
Rp1209
ag14
(g15
(I0
tp1210
g17
tp1211
Rp1212
(I1
(tg8
I00
S'\\\x03\x94\xd4\x88j\x06@'
p1213
tp1214
baa(lp1215
g85
ag4
(g8
S'u\xfdvp8u\xf5?'
p1216
tp1217
Rp1218
ag14
(g15
(I0
tp1219
g17
tp1220
Rp1221
(I1
(tg8
I00
S'\x15i\xfc\xd0\xf5\xdc\xfa?'
p1222
tp1223
bag4
(g8
S'Cz\x9e<OD\xf7?'
p1224
tp1225
Rp1226
ag14
(g15
(I0
tp1227
g17
tp1228
Rp1229
(I1
(tg8
I00
S'\xe6\xa3\xdamI\x80\xfe?'
p1230
tp1231
baa(lp1232
g103
ag4
(g8
S'E%\xd3\xc9\xed{\xf5?'
p1233
tp1234
Rp1235
ag14
(g15
(I0
tp1236
g17
tp1237
Rp1238
(I1
(tg8
I00
S'o\x94\xb7\xd1O\xe3\xfa?'
p1239
tp1240
bag4
(g8
S'\x83\x0f\x16%\x19G\xf7?'
p1241
tp1242
Rp1243
ag14
(g15
(I0
tp1244
g17
tp1245
Rp1246
(I1
(tg8
I00
S'k\xc0\xc9\xec\xf4\xba\xfe?'
p1247
tp1248
baa(lp1249
g121
ag4
(g8
S'\x00\xb3i\x95\xd8Z\xf5?'
p1250
tp1251
Rp1252
ag14
(g15
(I0
tp1253
g17
tp1254
Rp1255
(I1
(tg8
I00
S'\xb8\x1f\xf5\x8d\xdc\xf2\xfa?'
p1256
tp1257
bag4
(g8
S'\xf7B\xf6\xe2\xe9&\xf7?'
p1258
tp1259
Rp1260
ag14
(g15
(I0
tp1261
g17
tp1262
Rp1263
(I1
(tg8
I00
S'L\xcfk \x81\x87\xfe?'
p1264
tp1265
baa(lp1266
g139
ag4
(g8
S'\xca*\xd9\xd8f\x18\xf5?'
p1267
tp1268
Rp1269
ag14
(g15
(I0
tp1270
g17
tp1271
Rp1272
(I1
(tg8
I00
S'9\x07\xf3\x18#a\xfa?'
p1273
tp1274
bag4
(g8
S'z\x13\xf2\xce\xafF\xf7?'
p1275
tp1276
Rp1277
ag14
(g15
(I0
tp1278
g17
tp1279
Rp1280
(I1
(tg8
I00
S'\xbfg\x99\x97\xae\xc9\xfe?'
p1281
tp1282
baa(lp1283
g157
ag4
(g8
S'\xc4\xab\x04>\xeb\x80\xf5?'
p1284
tp1285
Rp1286
ag14
(g15
(I0
tp1287
g17
tp1288
Rp1289
(I1
(tg8
I00
S'\x99c5RQ\xe1\xf6?'
p1290
tp1291
bag4
(g8
S's\xee\xa3\xf1B\xa3\xf7?'
p1292
tp1293
Rp1294
ag14
(g15
(I0
tp1295
g17
tp1296
Rp1297
(I1
(tg8
I00
S"\x00~j\xa7\x95'\xfb?"
p1298
tp1299
baa(lp1300
g175
ag4
(g8
S"\x8a\xa2b\xea'1\xf5?"
p1301
tp1302
Rp1303
ag14
(g15
(I0
tp1304
g17
tp1305
Rp1306
(I1
(tg8
I00
S'#Fb)\xf7r\xf6?'
p1307
tp1308
bag4
(g8
S'R\xe6\x18\x98v%\xf7?'
p1309
tp1310
Rp1311
ag14
(g15
(I0
tp1312
g17
tp1313
Rp1314
(I1
(tg8
I00
S'\xaf"\x90\xe1\xf2T\xfa?'
p1315
tp1316
baa(lp1317
g193
ag4
(g8
S'\x00\xdf\xc0\x1e-\xf4\xf4?'
p1318
tp1319
Rp1320
ag14
(g15
(I0
tp1321
g17
tp1322
Rp1323
(I1
(tg8
I00
S'\xd5\xb8s:\xc5)\xf6?'
p1324
tp1325
bag4
(g8
S'\x94\x1c\xf8\xba\xd5;\xf7?'
p1326
tp1327
Rp1328
ag14
(g15
(I0
tp1329
g17
tp1330
Rp1331
(I1
(tg8
I00
S'|\xa0\x92\xfe\xd0E\xfa?'
p1332
tp1333
baa(lp1334
g211
ag4
(g8
S"\xe2'\xf7\x9f\xf0\xac\xf4?"
p1335
tp1336
Rp1337
ag14
(g15
(I0
tp1338
g17
tp1339
Rp1340
(I1
(tg8
I00
S'\xcd\xdd%\xf6&\x9d\xf5?'
p1341
tp1342
bag4
(g8
S'C\xd5\xf8\x16\x8d\xf9\xf6?'
p1343
tp1344
Rp1345
ag14
(g15
(I0
tp1346
g17
tp1347
Rp1348
(I1
(tg8
I00
S'\xa4\xdbW\x97\xfb\xaf\xfa?'
p1349
tp1350
baa(lp1351
g229
ag4
(g8
S'\xb8\x8f\x07E\\0\xf7?'
p1352
tp1353
Rp1354
ag14
(g15
(I0
tp1355
g17
tp1356
Rp1357
(I1
(tg8
I00
S'<0\x89o\x1eD\x05@'
p1358
tp1359
bag4
(g8
S'/\xcb\x90\x82\x90\xe9\xf7?'
p1360
tp1361
Rp1362
ag14
(g15
(I0
tp1363
g17
tp1364
Rp1365
(I1
(tg8
I00
S'Z\x19\xbc\xc4\x1b\xe6\x05@'
p1366
tp1367
baa(lp1368
g247
ag4
(g8
S'GKXV\xa5\x04\xf7?'
p1369
tp1370
Rp1371
ag14
(g15
(I0
tp1372
g17
tp1373
Rp1374
(I1
(tg8
I00
S')\xc0\xae\n>C\x05@'
p1375
tp1376
bag4
(g8
S'\xbc%\xb7\xa6\x14\xd1\xf7?'
p1377
tp1378
Rp1379
ag14
(g15
(I0
tp1380
g17
tp1381
Rp1382
(I1
(tg8
I00
S'\x1d\x06\xe3V#\x0c\x06@'
p1383
tp1384
baa(lp1385
g265
ag4
(g8
S'\xda\xd8\x05\xd9R\x03\xf7?'
p1386
tp1387
Rp1388
ag14
(g15
(I0
tp1389
g17
tp1390
Rp1391
(I1
(tg8
I00
S'G\x1a\xb3TO\x12\x05@'
p1392
tp1393
bag4
(g8
S'c@\xa9\xcd7\x9b\xf7?'
p1394
tp1395
Rp1396
ag14
(g15
(I0
tp1397
g17
tp1398
Rp1399
(I1
(tg8
I00
S'\x98M\xd8\x8c\xde\x99\x05@'
p1400
tp1401
baa(lp1402
g283
ag4
(g8
S'K\x8e\xca\x89E\xff\xf6?'
p1403
tp1404
Rp1405
ag14
(g15
(I0
tp1406
g17
tp1407
Rp1408
(I1
(tg8
I00
S'0\xfe\x85\xfdr\x1e\x05@'
p1409
tp1410
bag4
(g8
S'$rO\xf8f\x98\xf7?'
p1411
tp1412
Rp1413
ag14
(g15
(I0
tp1414
g17
tp1415
Rp1416
(I1
(tg8
I00
S'\n\t<\x06\xe4\xb9\x05@'
p1417
tp1418
baa(lp1419
g301
ag4
(g8
S'\x08\xbe:xj\xf6\xf4?'
p1420
tp1421
Rp1422
ag14
(g15
(I0
tp1423
g17
tp1424
Rp1425
(I1
(tg8
I00
S'0\xe7Q\x1a\xe1\x17\xf9?'
p1426
tp1427
bag4
(g8
S'\x8d\x9c0\x8b\x9a\x9f\xf6?'
p1428
tp1429
Rp1430
ag14
(g15
(I0
tp1431
g17
tp1432
Rp1433
(I1
(tg8
I00
S'U\xc0\xce|\xa8U\xfc?'
p1434
tp1435
baa(lp1436
g319
ag4
(g8
S"\x85>.\x17S'\xf5?"
p1437
tp1438
Rp1439
ag14
(g15
(I0
tp1440
g17
tp1441
Rp1442
(I1
(tg8
I00
S'%\xa3\t]\xccR\xf9?'
p1443
tp1444
bag4
(g8
S'\xcd\xd2\xad\xb8\\\xd7\xf6?'
p1445
tp1446
Rp1447
ag14
(g15
(I0
tp1448
g17
tp1449
Rp1450
(I1
(tg8
I00
S'\xb8p\x87\x94E\x85\xfc?'
p1451
tp1452
baa(lp1453
g337
ag4
(g8
S'\xa9J=\x05\xc9\xd5\xf4?'
p1454
tp1455
Rp1456
ag14
(g15
(I0
tp1457
g17
tp1458
Rp1459
(I1
(tg8
I00
S'\xa1\xa2\xbf\xd1\xc2\xde\xf8?'
p1460
tp1461
bag4
(g8
S'\xf01\xb5\xcaCq\xf6?'
p1462
tp1463
Rp1464
ag14
(g15
(I0
tp1465
g17
tp1466
Rp1467
(I1
(tg8
I00
S'1`.\xf6\xc9\x13\xfc?'
p1468
tp1469
baa(lp1470
g355
ag4
(g8
S':\xbc\x90/\xe2\xc8\xf4?'
p1471
tp1472
Rp1473
ag14
(g15
(I0
tp1474
g17
tp1475
Rp1476
(I1
(tg8
I00
S'\xed\xd8\x9d\xb2\x1f\xef\xf8?'
p1477
tp1478
bag4
(g8
S'\xbf\xc7\xcc\xa50\x9a\xf6?'
p1479
tp1480
Rp1481
ag14
(g15
(I0
tp1482
g17
tp1483
Rp1484
(I1
(tg8
I00
S'\xa2\xd4\xaf\xe2\xd4\x12\xfc?'
p1485
tp1486
baa(lp1487
g373
ag4
(g8
S'U\xf5\xa3\xc2\xc2\x8a\xf4?'
p1488
tp1489
Rp1490
ag14
(g15
(I0
tp1491
g17
tp1492
Rp1493
(I1
(tg8
I00
S'S@\xc0D\x06\x81\xf5?'
p1494
tp1495
bag4
(g8
S'6Z\x92\xfa\xceO\xf6?'
p1496
tp1497
Rp1498
ag14
(g15
(I0
tp1499
g17
tp1500
Rp1501
(I1
(tg8
I00
S'\x8ahe\n\xc6I\xf8?'
p1502
tp1503
baa(lp1504
g391
ag4
(g8
S'\xa8\xa9S\xd1\xe7\x83\xf4?'
p1505
tp1506
Rp1507
ag14
(g15
(I0
tp1508
g17
tp1509
Rp1510
(I1
(tg8
I00
S'\xae\xdf\x7f\xe8\xe3s\xf5?'
p1511
tp1512
bag4
(g8
S'\nS\xed\x16\xf1\xc9\xf6?'
p1513
tp1514
Rp1515
ag14
(g15
(I0
tp1516
g17
tp1517
Rp1518
(I1
(tg8
I00
S'NN.\xe7\xbdi\xf9?'
p1519
tp1520
baa(lp1521
g409
ag4
(g8
S',\xd4\xb0|\xf8\xdc\xf4?'
p1522
tp1523
Rp1524
ag14
(g15
(I0
tp1525
g17
tp1526
Rp1527
(I1
(tg8
I00
S'\xe4\xf3\xd0D\xd4\xae\xf5?'
p1528
tp1529
bag4
(g8
S'\x8e^;\xbd\xda\xb9\xf6?'
p1530
tp1531
Rp1532
ag14
(g15
(I0
tp1533
g17
tp1534
Rp1535
(I1
(tg8
I00
S')\xc7S\xee\x1b4\xf9?'
p1536
tp1537
baa(lp1538
g427
ag4
(g8
S'\xc1!P#\x7f\x87\xf4?'
p1539
tp1540
Rp1541
ag14
(g15
(I0
tp1542
g17
tp1543
Rp1544
(I1
(tg8
I00
S'\xaf-\xad\xfc\xdb\x17\xf5?'
p1545
tp1546
bag4
(g8
S'\xe2g\xd1%\xb3\x82\xf6?'
p1547
tp1548
Rp1549
ag14
(g15
(I0
tp1550
g17
tp1551
Rp1552
(I1
(tg8
I00
S'G\xd5\x8c:x\x9e\xf8?'
p1553
tp1554
baa(lp1555
g445
ag4
(g8
S'\xae\xea\xd3\xbf\xcc\xfa\xf5?'
p1556
tp1557
Rp1558
ag14
(g15
(I0
tp1559
g17
tp1560
Rp1561
(I1
(tg8
I00
S'dSB\xbc\xeb=\x04@'
p1562
tp1563
bag4
(g8
S'|"\x05o\xe5G\xf6?'
p1564
tp1565
Rp1566
ag14
(g15
(I0
tp1567
g17
tp1568
Rp1569
(I1
(tg8
I00
S'\ttz\x1e\xb8\x95\x04@'
p1570
tp1571
baa(lp1572
g463
ag4
(g8
S'^\xa6\xbf~\xc5"\xf6?'
p1573
tp1574
Rp1575
ag14
(g15
(I0
tp1576
g17
tp1577
Rp1578
(I1
(tg8
I00
S'\xcf\xaaD[\xefV\x04@'
p1579
tp1580
bag4
(g8
S'\xf5;\xa8\x7f\x96\x82\xf6?'
p1581
tp1582
Rp1583
ag14
(g15
(I0
tp1584
g17
tp1585
Rp1586
(I1
(tg8
I00
S'l\x80\x82wp\xb6\x04@'
p1587
tp1588
baa(lp1589
g481
ag4
(g8
S'\xf0v\xbe\xf4\xe69\xf2?'
p1590
tp1591
Rp1592
ag14
(g15
(I0
tp1593
g17
tp1594
Rp1595
(I1
(tg8
I00
S'\x1b\x1e\xba\xf6h\xf6\xf5?'
p1596
tp1597
bag4
(g8
S'\x122 \x99\xe7*\xf4?'
p1598
tp1599
Rp1600
ag14
(g15
(I0
tp1601
g17
tp1602
Rp1603
(I1
(tg8
I00
S'\xa2\xc7F\xfd\xd8J\xf9?'
p1604
tp1605
baa(lp1606
g499
ag4
(g8
S'b\xf3\xd8\xe9\xa5P\xf2?'
p1607
tp1608
Rp1609
ag14
(g15
(I0
tp1610
g17
tp1611
Rp1612
(I1
(tg8
I00
S'\xa9jy\x03\x80\xdd\xf5?'
p1613
tp1614
bag4
(g8
S'\xf5\xfe\x02\x89\xcdr\xf4?'
p1615
tp1616
Rp1617
ag14
(g15
(I0
tp1618
g17
tp1619
Rp1620
(I1
(tg8
I00
S'I66\x99\xc9,\xfa?'
p1621
tp1622
baa(lp1623
g517
ag4
(g8
S'Q\x82}\x06M0\xf1?'
p1624
tp1625
Rp1626
ag14
(g15
(I0
tp1627
g17
tp1628
Rp1629
(I1
(tg8
I00
S'\xd1\x15\x11\x07|v\xf0?'
p1630
tp1631
bag4
(g8
S"\x16'6'0\xf9\xf3?"
p1632
tp1633
Rp1634
ag14
(g15
(I0
tp1635
g17
tp1636
Rp1637
(I1
(tg8
I00
S'\xbc<.\xb7?\n\xf6?'
p1638
tp1639
baa(lp1640
g535
ag4
(g8
S'b~\xfd~\x04M\xf1?'
p1641
tp1642
Rp1643
ag14
(g15
(I0
tp1644
g17
tp1645
Rp1646
(I1
(tg8
I00
S'eZ\xd0\xea\xa6\x81\xf0?'
p1647
tp1648
bag4
(g8
S'_\xe1_lS\xf2\xf3?'
p1649
tp1650
Rp1651
ag14
(g15
(I0
tp1652
g17
tp1653
Rp1654
(I1
(tg8
I00
S'v\x0e\xb99O>\xf6?'
p1655
tp1656
baa(lp1657
g553
ag4
(g8
S'\x9fd\xe02D\xf2\xf5?'
p1658
tp1659
Rp1660
ag14
(g15
(I0
tp1661
g17
tp1662
Rp1663
(I1
(tg8
I00
S'\xfe\x08\xa4\xf6\x8f\x12\x05@'
p1664
tp1665
bag4
(g8
S'\x03AR\xd4\xe2\x8d\xf6?'
p1666
tp1667
Rp1668
ag14
(g15
(I0
tp1669
g17
tp1670
Rp1671
(I1
(tg8
I00
S'2\x1b\xe3\x85(\xa0\x05@'
p1672
tp1673
baa(lp1674
g571
ag4
(g8
S'##\xda;\xb1\x12\xf6?'
p1675
tp1676
Rp1677
ag14
(g15
(I0
tp1678
g17
tp1679
Rp1680
(I1
(tg8
I00
S'\x91\xa4\x1c\xbcg4\x05@'
p1681
tp1682
bag4
(g8
S'\xa5\xc9\t\xac\xf6\xbc\xf6?'
p1683
tp1684
Rp1685
ag14
(g15
(I0
tp1686
g17
tp1687
Rp1688
(I1
(tg8
I00
S'<U\xd5\xa73\xd0\x05@'
p1689
tp1690
baa(lp1691
g589
ag4
(g8
S'fC\xa9Z\x0b.\xf6?'
p1692
tp1693
Rp1694
ag14
(g15
(I0
tp1695
g17
tp1696
Rp1697
(I1
(tg8
I00
S'k\x08L\x16\xf97\x05@'
p1698
tp1699
bag4
(g8
S'\x9d\x04b\xf7\xcd\xee\xf6?'
p1700
tp1701
Rp1702
ag14
(g15
(I0
tp1703
g17
tp1704
Rp1705
(I1
(tg8
I00
S'\xa4 \xef%\xbe\xde\x05@'
p1706
tp1707
baa(lp1708
g607
ag4
(g8
S'\t\x87I\x8b"9\xf6?'
p1709
tp1710
Rp1711
ag14
(g15
(I0
tp1712
g17
tp1713
Rp1714
(I1
(tg8
I00
S'\xd0\x12\xc6g\xe2N\x05@'
p1715
tp1716
bag4
(g8
S'X\x13\x10&\xc7\xcb\xf6?'
p1717
tp1718
Rp1719
ag14
(g15
(I0
tp1720
g17
tp1721
Rp1722
(I1
(tg8
I00
S'9 5\xc9\xce\xe5\x05@'
p1723
tp1724
baa(lp1725
g625
ag4
(g8
S'\x1ewD\xf8\xeb\x8f\xf4?'
p1726
tp1727
Rp1728
ag14
(g15
(I0
tp1729
g17
tp1730
Rp1731
(I1
(tg8
I00
S'*\xdcRO\x0f\x1b\xf8?'
p1732
tp1733
bag4
(g8
S'*\x91\x14\x92\x00\xf3\xf5?'
p1734
tp1735
Rp1736
ag14
(g15
(I0
tp1737
g17
tp1738
Rp1739
(I1
(tg8
I00
S'\xce11\xf7B\xb6\xfa?'
p1740
tp1741
baa(lp1742
g643
ag4
(g8
S'\xcb2\xbca\xf2\xec\xf3?'
p1743
tp1744
Rp1745
ag14
(g15
(I0
tp1746
g17
tp1747
Rp1748
(I1
(tg8
I00
S'\xd7\x8a\x90m\x0e\x99\xf7?'
p1749
tp1750
bag4
(g8
S'\x9b\xa6\xc9\x16\rL\xf5?'
p1751
tp1752
Rp1753
ag14
(g15
(I0
tp1754
g17
tp1755
Rp1756
(I1
(tg8
I00
S'\x87?\xa02G\xf6\xf9?'
p1757
tp1758
baa(lp1759
g661
ag4
(g8
S'TP\x93\xea\xe4=\xf4?'
p1760
tp1761
Rp1762
ag14
(g15
(I0
tp1763
g17
tp1764
Rp1765
(I1
(tg8
I00
S'\xa2qa|\x8a\xa2\xf7?'
p1766
tp1767
bag4
(g8
S'\xec\xcd\x90J\xb98\xf6?'
p1768
tp1769
Rp1770
ag14
(g15
(I0
tp1771
g17
tp1772
Rp1773
(I1
(tg8
I00
S'^G\xd1\x93\xfdK\xfb?'
p1774
tp1775
baa(lp1776
g679
ag4
(g8
S'\x1ac)Mu\x1d\xf4?'
p1777
tp1778
Rp1779
ag14
(g15
(I0
tp1780
g17
tp1781
Rp1782
(I1
(tg8
I00
S'\x13\x08\xc4\x02\x94\xaa\xf7?'
p1783
tp1784
bag4
(g8
S'i\xd7Z\x07W\x84\xf5?'
p1785
tp1786
Rp1787
ag14
(g15
(I0
tp1788
g17
tp1789
Rp1790
(I1
(tg8
I00
S'\xf5_F\x9a\xa4\x91\xfa?'
p1791
tp1792
baa(lp1793
g697
ag4
(g8
S'\xdbfU\xc3\xd0\xec\xf3?'
p1794
tp1795
Rp1796
ag14
(g15
(I0
tp1797
g17
tp1798
Rp1799
(I1
(tg8
I00
S'\xd1\xc1\xado\x0c\x8e\xf4?'
p1800
tp1801
bag4
(g8
S'\xbb\x8a\xf4F\x03=\xf5?'
p1802
tp1803
Rp1804
ag14
(g15
(I0
tp1805
g17
tp1806
Rp1807
(I1
(tg8
I00
S'G\x88y8\xac\x90\xf7?'
p1808
tp1809
baa(lp1810
g715
ag4
(g8
S'ICi\t\x05\x1b\xf4?'
p1811
tp1812
Rp1813
ag14
(g15
(I0
tp1814
g17
tp1815
Rp1816
(I1
(tg8
I00
S'(\x08\xbc\xa5\xd2\xaf\xf4?'
p1817
tp1818
bag4
(g8
S'\x9e\xc0\xd9#\xcc]\xf6?'
p1819
tp1820
Rp1821
ag14
(g15
(I0
tp1822
g17
tp1823
Rp1824
(I1
(tg8
I00
S'\x1a\x12~U\xeb\x88\xf8?'
p1825
tp1826
baa(lp1827
g733
ag4
(g8
S'2\x14\x02\xffm\x08\xf4?'
p1828
tp1829
Rp1830
ag14
(g15
(I0
tp1831
g17
tp1832
Rp1833
(I1
(tg8
I00
S'\xf3zT\x96\x06\xc8\xf4?'
p1834
tp1835
bag4
(g8
S'\x18\x0c\t\x97\x81\xc1\xf5?'
p1836
tp1837
Rp1838
ag14
(g15
(I0
tp1839
g17
tp1840
Rp1841
(I1
(tg8
I00
S'j\xcf\x98V\x8fp\xf8?'
p1842
tp1843
baa(lp1844
g751
ag4
(g8
S'\xd8\x87 \xf5\xc3\xde\xf3?'
p1845
tp1846
Rp1847
ag14
(g15
(I0
tp1848
g17
tp1849
Rp1850
(I1
(tg8
I00
S'\xd2\x12\x02\xae\x98n\xf4?'
p1851
tp1852
bag4
(g8
S'\x13\xf1\x8bc\xb7r\xf5?'
p1853
tp1854
Rp1855
ag14
(g15
(I0
tp1856
g17
tp1857
Rp1858
(I1
(tg8
I00
S'\x9a\xabX\xf3l\xcd\xf7?'
p1859
tp1860
baa(lp1861
g769
ag4
(g8
S'p\x10/\xeb\xd2\x9c\xf5?'
p1862
tp1863
Rp1864
ag14
(g15
(I0
tp1865
g17
tp1866
Rp1867
(I1
(tg8
I00
S'\xea\xa3\x13\xa0\xfa\xac\x04@'
p1868
tp1869
bag4
(g8
S"\n\xc2ei'\r\xf6?"
p1870
tp1871
Rp1872
ag14
(g15
(I0
tp1873
g17
tp1874
Rp1875
(I1
(tg8
I00
S'\\\x8c\xe3\x1c\xbc\x19\x05@'
p1876
tp1877
baa(lp1878
g787
ag4
(g8
S'\xf6O\xbex\x8f\x92\xf5?'
p1879
tp1880
Rp1881
ag14
(g15
(I0
tp1882
g17
tp1883
Rp1884
(I1
(tg8
I00
S'\xca\x9bJU\xdb\xae\x04@'
p1885
tp1886
bag4
(g8
S'\xe1\x87\xc3o\xb0\xe8\xf5?'
p1887
tp1888
Rp1889
ag14
(g15
(I0
tp1890
g17
tp1891
Rp1892
(I1
(tg8
I00
S'Xr\xd0\r\xf7\x17\x05@'
p1893
tp1894
baa(lp1895
g805
ag4
(g8
S'(\x10N%^\xa5\xf5?'
p1896
tp1897
Rp1898
ag14
(g15
(I0
tp1899
g17
tp1900
Rp1901
(I1
(tg8
I00
S'\xd4\x13\n\xbcS\xbb\x04@'
p1902
tp1903
bag4
(g8
S'\x88Pe\xd8\x03\x08\xf6?'
p1904
tp1905
Rp1906
ag14
(g15
(I0
tp1907
g17
tp1908
Rp1909
(I1
(tg8
I00
S'\x98\xdc \xea}(\x05@'
p1910
tp1911
baa(lp1912
g823
ag4
(g8
S'\x91\xf7\xf1\xac\xb7\xb0\xf5?'
p1913
tp1914
Rp1915
ag14
(g15
(I0
tp1916
g17
tp1917
Rp1918
(I1
(tg8
I00
S'\xb6F\x1d\xd7\x16\xf2\x04@'
p1919
tp1920
bag4
(g8
S'kYD\xbf\xe8\x1f\xf6?'
p1921
tp1922
Rp1923
ag14
(g15
(I0
tp1924
g17
tp1925
Rp1926
(I1
(tg8
I00
S'*@GM\xe0i\x05@'
p1927
tp1928
baa(lp1929
g841
ag4
(g8
S'J\xf1\xa1\xf6w\\\xf2?'
p1930
tp1931
Rp1932
ag14
(g15
(I0
tp1933
g17
tp1934
Rp1935
(I1
(tg8
I00
S'a\xc2\xefs5n\xf5?'
p1936
tp1937
bag4
(g8
S'\x8fF\x85\x9b\x1di\xf4?'
p1938
tp1939
Rp1940
ag14
(g15
(I0
tp1941
g17
tp1942
Rp1943
(I1
(tg8
I00
S'\xab+B;Y\x95\xf9?'
p1944
tp1945
baa(lp1946
g859
ag4
(g8
S'\xc0\xe3\x86x\xaf\xe2\xf1?'
p1947
tp1948
Rp1949
ag14
(g15
(I0
tp1950
g17
tp1951
Rp1952
(I1
(tg8
I00
S'\xa9*\xb2p\xb9\xf4\xf4?'
p1953
tp1954
bag4
(g8
S'O\xe7T\x14\x1e\xf4\xf3?'
p1955
tp1956
Rp1957
ag14
(g15
(I0
tp1958
g17
tp1959
Rp1960
(I1
(tg8
I00
S'#\xdb{A\xc0\x1c\xf9?'
p1961
tp1962
baa(lp1963
g877
ag4
(g8
S'\xdf\x1a\xae\x99d~\xf2?'
p1964
tp1965
Rp1966
ag14
(g15
(I0
tp1967
g17
tp1968
Rp1969
(I1
(tg8
I00
S'\x9b\x81\x99\x7fR\x96\xf5?'
p1970
tp1971
bag4
(g8
S'+i\x00\x02(\xd2\xf4?'
p1972
tp1973
Rp1974
ag14
(g15
(I0
tp1975
g17
tp1976
Rp1977
(I1
(tg8
I00
S'\xf3h\x8dtaH\xfa?'
p1978
tp1979
baa(lp1980
g895
ag4
(g8
S'\xb1h?M#\x01\xf2?'
p1981
tp1982
Rp1983
ag14
(g15
(I0
tp1984
g17
tp1985
Rp1986
(I1
(tg8
I00
S'\x8c7\x96S\xdd*\xf5?'
p1987
tp1988
bag4
(g8
S'\xf3\x1bT\xf6\x87,\xf4?'
p1989
tp1990
Rp1991
ag14
(g15
(I0
tp1992
g17
tp1993
Rp1994
(I1
(tg8
I00
S'\xd0I*\xe5\xbc\xb5\xf9?'
p1995
tp1996
baa(lp1997
g913
ag4
(g8
S'\xe1\xf7\x87\x81\xe0_\xf1?'
p1998
tp1999
Rp2000
ag14
(g15
(I0
tp2001
g17
tp2002
Rp2003
(I1
(tg8
I00
S'$\x0f9\x12\xfd]\xf0?'
p2004
tp2005
bag4
(g8
S'L0\xba\xf4\xfb\xe1\xf3?'
p2006
tp2007
Rp2008
ag14
(g15
(I0
tp2009
g17
tp2010
Rp2011
(I1
(tg8
I00
S'\x08>\x87\x08\x7f\xdb\xf5?'
p2012
tp2013
baa(lp2014
g931
ag4
(g8
S'\xb5\xb2\xdb!}\xb3\xf1?'
p2015
tp2016
Rp2017
ag14
(g15
(I0
tp2018
g17
tp2019
Rp2020
(I1
(tg8
I00
S'H\x89 \xeb\xab\xe3\xf0?'
p2021
tp2022
bag4
(g8
S'7`v\xdfp\xf9\xf3?'
p2023
tp2024
Rp2025
ag14
(g15
(I0
tp2026
g17
tp2027
Rp2028
(I1
(tg8
I00
S'\x08\n9\t^\r\xf6?'
p2029
tp2030
baa(lp2031
g949
ag4
(g8
S'\x07\xef\xc8\xe4\xbaH\xf1?'
p2032
tp2033
Rp2034
ag14
(g15
(I0
tp2035
g17
tp2036
Rp2037
(I1
(tg8
I00
S'\x85\xb8p\xa3\x9f\x83\xf0?'
p2038
tp2039
bag4
(g8
S'\xf0\x04B\xdc\rH\xf4?'
p2040
tp2041
Rp2042
ag14
(g15
(I0
tp2043
g17
tp2044
Rp2045
(I1
(tg8
I00
S'2p#\xa7\x16i\xf6?'
p2046
tp2047
baa(lp2048
g967
ag4
(g8
S'\x13\xb3\x12\x03V\xa1\xf1?'
p2049
tp2050
Rp2051
ag14
(g15
(I0
tp2052
g17
tp2053
Rp2054
(I1
(tg8
I00
S'\xc5\x10f\xb6\xd0\xac\xf0?'
p2055
tp2056
bag4
(g8
S'\xe9V\x8c\x89\x89\xce\xf4?'
p2057
tp2058
Rp2059
ag14
(g15
(I0
tp2060
g17
tp2061
Rp2062
(I1
(tg8
I00
S'aUV\xbdA\xd3\xf6?'
p2063
tp2064
baa(lp2065
g985
ag4
(g8
S'J\x04\xe7Ynz\xf5?'
p2066
tp2067
Rp2068
ag14
(g15
(I0
tp2069
g17
tp2070
Rp2071
(I1
(tg8
I00
S'\xcf,\x1b0\x91\x99\x04@'
p2072
tp2073
bag4
(g8
S'qiX8~\xcc\xf5?'
p2074
tp2075
Rp2076
ag14
(g15
(I0
tp2077
g17
tp2078
Rp2079
(I1
(tg8
I00
S'n\t\xd1\x03\x9d\xfb\x04@'
p2080
tp2081
baa(lp2082
g1003
ag4
(g8
S'\xa7n\xbb\xec\xf2\x87\xf5?'
p2083
tp2084
Rp2085
ag14
(g15
(I0
tp2086
g17
tp2087
Rp2088
(I1
(tg8
I00
S'\xba\xba0b\xb8\xa6\x04@'
p2089
tp2090
bag4
(g8
S'i\xccD,]\xe1\xf5?'
p2091
tp2092
Rp2093
ag14
(g15
(I0
tp2094
g17
tp2095
Rp2096
(I1
(tg8
I00
S'j\xce#\n\x19\t\x05@'
p2097
tp2098
baa(lp2099
g1021
ag4
(g8
S'\xe0\xdfvVQ\x80\xf5?'
p2100
tp2101
Rp2102
ag14
(g15
(I0
tp2103
g17
tp2104
Rp2105
(I1
(tg8
I00
S'\x9f0,+\x83\xa2\x04@'
p2106
tp2107
bag4
(g8
S'\xb8\x8c\x04G\x9b\xd5\xf5?'
p2108
tp2109
Rp2110
ag14
(g15
(I0
tp2111
g17
tp2112
Rp2113
(I1
(tg8
I00
S'\x9a^\x98p@\x07\x05@'
p2114
tp2115
baa(lp2116
g1039
ag4
(g8
S'\x1f\x17+\xc07\x90\xf1?'
p2117
tp2118
Rp2119
ag14
(g15
(I0
tp2120
g17
tp2121
Rp2122
(I1
(tg8
I00
S'\x80FG\x16\x89\xbb\xf4?'
p2123
tp2124
bag4
(g8
S'A`\xdd\xc1Ye\xf4?'
p2125
tp2126
Rp2127
ag14
(g15
(I0
tp2128
g17
tp2129
Rp2130
(I1
(tg8
I00
S'l\x14\x8e\xf0\xac\xee\xf9?'
p2131
tp2132
baa(lp2133
g1057
ag4
(g8
S'\xa9\x8ekK^\xf9\xf0?'
p2134
tp2135
Rp2136
ag14
(g15
(I0
tp2137
g17
tp2138
Rp2139
(I1
(tg8
I00
S'A\xe2\xab8\x9f>\xf4?'
p2140
tp2141
bag4
(g8
S'H\x9c\xa0\x9cj\xc0\xf3?'
p2142
tp2143
Rp2144
ag14
(g15
(I0
tp2145
g17
tp2146
Rp2147
(I1
(tg8
I00
S'A\xb5\xc6\x01\x8b\xf5\xf9?'
p2148
tp2149
baa(lp2150
g1075
ag4
(g8
S'^\x1e\xff\x08\xcd\x0e\xf1?'
p2151
tp2152
Rp2153
ag14
(g15
(I0
tp2154
g17
tp2155
Rp2156
(I1
(tg8
I00
S'!o\xcdF\xa3\x02\xf4?'
p2157
tp2158
bag4
(g8
S'\xb0\xf7\xb0\xadi\xc1\xf3?'
p2159
tp2160
Rp2161
ag14
(g15
(I0
tp2162
g17
tp2163
Rp2164
(I1
(tg8
I00
S'\r\xb8P\xf7B\xac\xf9?'
p2165
tp2166
baa(lp2167
g1093
ag4
(g8
S'\xab\xc4\xfe\xfd8\xac\xf0?'
p2168
tp2169
Rp2170
ag14
(g15
(I0
tp2171
g17
tp2172
Rp2173
(I1
(tg8
I00
S'H^\x11uJ@\xee?'
p2174
tp2175
bag4
(g8
S'\xb6I!\xcd`\xf7\xf3?'
p2176
tp2177
Rp2178
ag14
(g15
(I0
tp2179
g17
tp2180
Rp2181
(I1
(tg8
I00
S'\x11\xc9\xfah\x82-\xf6?'
p2182
tp2183
baa(lp2184
g1111
ag4
(g8
S'\x08.\xbb\xdc\x95T\xf0?'
p2185
tp2186
Rp2187
ag14
(g15
(I0
tp2188
g17
tp2189
Rp2190
(I1
(tg8
I00
S'a\x9da\xa9\x9d<\xed?'
p2191
tp2192
bag4
(g8
S'\xe5L\xcb|\xa3\xd4\xf4?'
p2193
tp2194
Rp2195
ag14
(g15
(I0
tp2196
g17
tp2197
Rp2198
(I1
(tg8
I00
S'\teE\t\xca;\xf8?'
p2199
tp2200
baa(lp2201
g1129
ag4
(g8
S'\xe9\xe2\xaa4\xb1\x85\xf0?'
p2202
tp2203
Rp2204
ag14
(g15
(I0
tp2205
g17
tp2206
Rp2207
(I1
(tg8
I00
S'\x0c\x1b\xdd\xf8\xad\xe8\xed?'
p2208
tp2209
bag4
(g8
S'\x94*\xc8\xa8\xa9 \xf4?'
p2210
tp2211
Rp2212
ag14
(g15
(I0
tp2213
g17
tp2214
Rp2215
(I1
(tg8
I00
S'\xad\xf5\xf6\xfd\x89V\xf6?'
p2216
tp2217
baaa(lp2218
(lp2219
g3
ag4
(g8
S'\xe1)\xa7!(\x02\xf8?'
p2220
tp2221
Rp2222
ag14
(g15
(I0
tp2223
g17
tp2224
Rp2225
(I1
(tg8
I00
S"\xa4'\x05\xfbz\xbb\x05@"
p2226
tp2227
bag4
(g8
S'he\xdb\xf5K\xcd\xf8?'
p2228
tp2229
Rp2230
ag14
(g15
(I0
tp2231
g17
tp2232
Rp2233
(I1
(tg8
I00
S'X\xb2\x1c\xa2?\xa8\x06@'
p2234
tp2235
baa(lp2236
g31
ag4
(g8
S'\xc6\x92m\xed\xc8\xb3\xf7?'
p2237
tp2238
Rp2239
ag14
(g15
(I0
tp2240
g17
tp2241
Rp2242
(I1
(tg8
I00
S'\xbf\x9b~\xc4 \x93\x05@'
p2243
tp2244
bag4
(g8
S'\x06\x1e/\x82>\xa8\xf8?'
p2245
tp2246
Rp2247
ag14
(g15
(I0
tp2248
g17
tp2249
Rp2250
(I1
(tg8
I00
S'\x93\xc2\x98\xb2\xcf\x9d\x06@'
p2251
tp2252
baa(lp2253
g49
ag4
(g8
S'L\x8f\xdb\x07\xed\n\xf8?'
p2254
tp2255
Rp2256
ag14
(g15
(I0
tp2257
g17
tp2258
Rp2259
(I1
(tg8
I00
S'z\x9c\x8fd\x0c\xc7\x05@'
p2260
tp2261
bag4
(g8
S'\xc9k\xa2\xf7\x17\xbd\xf8?'
p2262
tp2263
Rp2264
ag14
(g15
(I0
tp2265
g17
tp2266
Rp2267
(I1
(tg8
I00
S'`\xdd\xab\xde\xe1\xa0\x06@'
p2268
tp2269
baa(lp2270
g67
ag4
(g8
S'\xe0\\\x06u\xc3\xfa\xf7?'
p2271
tp2272
Rp2273
ag14
(g15
(I0
tp2274
g17
tp2275
Rp2276
(I1
(tg8
I00
S'V\x96\x1d8\x02\xe0\x05@'
p2277
tp2278
bag4
(g8
S'\xfb\xc0V4I\xa7\xf8?'
p2279
tp2280
Rp2281
ag14
(g15
(I0
tp2282
g17
tp2283
Rp2284
(I1
(tg8
I00
S'\xf8\xfaV1w\xb1\x06@'
p2285
tp2286
baa(lp2287
g85
ag4
(g8
S'\xd6v\x1c7\x94r\xf5?'
p2288
tp2289
Rp2290
ag14
(g15
(I0
tp2291
g17
tp2292
Rp2293
(I1
(tg8
I00
S'z*7e.\xfd\xfa?'
p2294
tp2295
bag4
(g8
S'\xac\xf7\xadr)I\xf6?'
p2296
tp2297
Rp2298
ag14
(g15
(I0
tp2299
g17
tp2300
Rp2301
(I1
(tg8
I00
S':6\xc9L\xcbo\xfc?'
p2302
tp2303
baa(lp2304
g103
ag4
(g8
S'\xeb\xe5\xa8\x98\xe2{\xf5?'
p2305
tp2306
Rp2307
ag14
(g15
(I0
tp2308
g17
tp2309
Rp2310
(I1
(tg8
I00
S'\xdaK\x03(|\xe1\xfa?'
p2311
tp2312
bag4
(g8
S'A\xe2\xd9F\xc3V\xf6?'
p2313
tp2314
Rp2315
ag14
(g15
(I0
tp2316
g17
tp2317
Rp2318
(I1
(tg8
I00
S'\xf0\xa8\xd3\xf3\xd9m\xfc?'
p2319
tp2320
baa(lp2321
g121
ag4
(g8
S'\xc9\xe7\x87nL\xe4\xf5?'
p2322
tp2323
Rp2324
ag14
(g15
(I0
tp2325
g17
tp2326
Rp2327
(I1
(tg8
I00
S'g\x05\x97Ev\x87\xfb?'
p2328
tp2329
bag4
(g8
S'fP\xf4\x92\xae\xa6\xf6?'
p2330
tp2331
Rp2332
ag14
(g15
(I0
tp2333
g17
tp2334
Rp2335
(I1
(tg8
I00
S'\x0b\xfb\xa8~%\x03\xfd?'
p2336
tp2337
baa(lp2338
g139
ag4
(g8
S'\x9e\xe5\xc8\xf8O\xc3\xf5?'
p2339
tp2340
Rp2341
ag14
(g15
(I0
tp2342
g17
tp2343
Rp2344
(I1
(tg8
I00
S'*\xa7\xeb7SG\xfb?'
p2345
tp2346
bag4
(g8
S'\xa9^\x12Y\x01\xac\xf6?'
p2347
tp2348
Rp2349
ag14
(g15
(I0
tp2350
g17
tp2351
Rp2352
(I1
(tg8
I00
S't\x81[WQ\x0e\xfd?'
p2353
tp2354
baa(lp2355
g157
ag4
(g8
S'`\x1d5\xc6\x1d\x0c\xf5?'
p2356
tp2357
Rp2358
ag14
(g15
(I0
tp2359
g17
tp2360
Rp2361
(I1
(tg8
I00
S'\x89\x8d\xa6\xb5\x84\x8f\xf6?'
p2362
tp2363
bag4
(g8
S'\xb2!\xd0Z2\x1b\xf6?'
p2364
tp2365
Rp2366
ag14
(g15
(I0
tp2367
g17
tp2368
Rp2369
(I1
(tg8
I00
S'S\xc6xn\x12\x80\xf8?'
p2370
tp2371
baa(lp2372
g175
ag4
(g8
S'C5\xe9\x88\x9e\xcc\xf4?'
p2373
tp2374
Rp2375
ag14
(g15
(I0
tp2376
g17
tp2377
Rp2378
(I1
(tg8
I00
S'\t\x8b\xf2\xfeL\x0c\xf6?'
p2379
tp2380
bag4
(g8
S'-\xf6\x03KG\xc0\xf5?'
p2381
tp2382
Rp2383
ag14
(g15
(I0
tp2384
g17
tp2385
Rp2386
(I1
(tg8
I00
S'`\x93\x19|x\xd8\xf7?'
p2387
tp2388
baa(lp2389
g193
ag4
(g8
S'\xb8\xfc\xec[\xc4`\xf5?'
p2390
tp2391
Rp2392
ag14
(g15
(I0
tp2393
g17
tp2394
Rp2395
(I1
(tg8
I00
S'\xb8\x92\xebd\x1f\xde\xf6?'
p2396
tp2397
bag4
(g8
S'\x9e\xbc\xb7\xa0\xfb)\xf6?'
p2398
tp2399
Rp2400
ag14
(g15
(I0
tp2401
g17
tp2402
Rp2403
(I1
(tg8
I00
S'e7\xb0\xdda\\\xf8?'
p2404
tp2405
baa(lp2406
g211
ag4
(g8
S'\x9b\r\x9b4_%\xf5?'
p2407
tp2408
Rp2409
ag14
(g15
(I0
tp2410
g17
tp2411
Rp2412
(I1
(tg8
I00
S'\x9f3\xcd\xd8\x12\x97\xf6?'
p2413
tp2414
bag4
(g8
S'\t\xc9*\xc5\xb5\xe6\xf5?'
p2415
tp2416
Rp2417
ag14
(g15
(I0
tp2418
g17
tp2419
Rp2420
(I1
(tg8
I00
S'5\x94\x1d\x91\xba\xe5\xf7?'
p2421
tp2422
baa(lp2423
g229
ag4
(g8
S'\x93\xd5\x9a\xe1\t\x1c\xf7?'
p2424
tp2425
Rp2426
ag14
(g15
(I0
tp2427
g17
tp2428
Rp2429
(I1
(tg8
I00
S'\xcf\xda\xcd\xde\xb3:\x05@'
p2430
tp2431
bag4
(g8
S'\xd8\xc2\x9f3\\\xf5\xf7?'
p2432
tp2433
Rp2434
ag14
(g15
(I0
tp2435
g17
tp2436
Rp2437
(I1
(tg8
I00
S'\xe0\xe09\x9eJ#\x06@'
p2438
tp2439
baa(lp2440
g247
ag4
(g8
S'\xf0C\xb4&\xf8\xeb\xf6?'
p2441
tp2442
Rp2443
ag14
(g15
(I0
tp2444
g17
tp2445
Rp2446
(I1
(tg8
I00
S'\xfc\xca\x17\xcc\xbd#\x05@'
p2447
tp2448
bag4
(g8
S'\xd7\xedC\x8c\x99\xe1\xf7?'
p2449
tp2450
Rp2451
ag14
(g15
(I0
tp2452
g17
tp2453
Rp2454
(I1
(tg8
I00
S'\xb76\xd1\xd5\xad(\x06@'
p2455
tp2456
baa(lp2457
g265
ag4
(g8
S'L\x9c\xcc;I\xe0\xf6?'
p2458
tp2459
Rp2460
ag14
(g15
(I0
tp2461
g17
tp2462
Rp2463
(I1
(tg8
I00
S'\xcd\xdf\xa4\xa1N\x01\x05@'
p2464
tp2465
bag4
(g8
S' \\\xbe\xe6\xe3\xf0\xf7?'
p2466
tp2467
Rp2468
ag14
(g15
(I0
tp2469
g17
tp2470
Rp2471
(I1
(tg8
I00
S';ZU\xa4\xe0#\x06@'
p2472
tp2473
baa(lp2474
g283
ag4
(g8
S'~/\x15\xc0{!\xf7?'
p2475
tp2476
Rp2477
ag14
(g15
(I0
tp2478
g17
tp2479
Rp2480
(I1
(tg8
I00
S'\xb7\xff^\x8e\xa1^\x05@'
p2481
tp2482
bag4
(g8
S'Z"\xadw\xb5\x12\xf8?'
p2483
tp2484
Rp2485
ag14
(g15
(I0
tp2486
g17
tp2487
Rp2488
(I1
(tg8
I00
S'0\xb8K\x17}^\x06@'
p2489
tp2490
baa(lp2491
g301
ag4
(g8
S'.\xfc\x93\xd1;\xd5\xf4?'
p2492
tp2493
Rp2494
ag14
(g15
(I0
tp2495
g17
tp2496
Rp2497
(I1
(tg8
I00
S'\x1b\x17/\xba)\n\xf9?'
p2498
tp2499
bag4
(g8
S'\x0eU\xdfxS\xfb\xf5?'
p2500
tp2501
Rp2502
ag14
(g15
(I0
tp2503
g17
tp2504
Rp2505
(I1
(tg8
I00
S'\x03\xf8\xeb\xb6\xfd\xd2\xfa?'
p2506
tp2507
baa(lp2508
g319
ag4
(g8
S'\x92\xe0\xaa)O \xf5?'
p2509
tp2510
Rp2511
ag14
(g15
(I0
tp2512
g17
tp2513
Rp2514
(I1
(tg8
I00
S'\xc8\xd6\x01\xca\x81\x9c\xf9?'
p2515
tp2516
bag4
(g8
S'E\xcf\x04\xfax\x0f\xf6?'
p2517
tp2518
Rp2519
ag14
(g15
(I0
tp2520
g17
tp2521
Rp2522
(I1
(tg8
I00
S'p\xfa\xb6\x8com\xfb?'
p2523
tp2524
baa(lp2525
g337
ag4
(g8
S'\x0e|8=L\xd7\xf4?'
p2526
tp2527
Rp2528
ag14
(g15
(I0
tp2529
g17
tp2530
Rp2531
(I1
(tg8
I00
S'U\x8b:\xc9\x82%\xf9?'
p2532
tp2533
bag4
(g8
S'\x0e\xdfG/\x93\xbf\xf5?'
p2534
tp2535
Rp2536
ag14
(g15
(I0
tp2537
g17
tp2538
Rp2539
(I1
(tg8
I00
S'"M\x110~\xce\xfa?'
p2540
tp2541
baa(lp2542
g355
ag4
(g8
S'\xb3oAx\x89\xe3\xf4?'
p2543
tp2544
Rp2545
ag14
(g15
(I0
tp2546
g17
tp2547
Rp2548
(I1
(tg8
I00
S'\xfc\x15\x87z\xe7\x19\xf9?'
p2549
tp2550
bag4
(g8
S'\xb0\x9a\xf6\xdb\xef\xde\xf5?'
p2551
tp2552
Rp2553
ag14
(g15
(I0
tp2554
g17
tp2555
Rp2556
(I1
(tg8
I00
S'6\x97\x14_2\xf3\xfa?'
p2557
tp2558
baa(lp2559
g373
ag4
(g8
S'\x1f\xa9\x92\xd5wr\xf4?'
p2560
tp2561
Rp2562
ag14
(g15
(I0
tp2563
g17
tp2564
Rp2565
(I1
(tg8
I00
S'O5\xca\x95\\\x80\xf5?'
p2566
tp2567
bag4
(g8
S'\x86nB\xfel\xbc\xf5?'
p2568
tp2569
Rp2570
ag14
(g15
(I0
tp2571
g17
tp2572
Rp2573
(I1
(tg8
I00
S'\xaa\xfe\xcf>\x12f\xf7?'
p2574
tp2575
baa(lp2576
g391
ag4
(g8
S'\xaf\xf9|\xa2\x9c\xb4\xf4?'
p2577
tp2578
Rp2579
ag14
(g15
(I0
tp2580
g17
tp2581
Rp2582
(I1
(tg8
I00
S"d\xd1\xbfv'\xc3\xf5?"
p2583
tp2584
bag4
(g8
S'\xbb\xad\xb7\xe0v\xa1\xf5?'
p2585
tp2586
Rp2587
ag14
(g15
(I0
tp2588
g17
tp2589
Rp2590
(I1
(tg8
I00
S'\xcaqb\xf6"\x8a\xf7?'
p2591
tp2592
baa(lp2593
g409
ag4
(g8
S'&\x8a]\x1a\xe5\x9d\xf4?'
p2594
tp2595
Rp2596
ag14
(g15
(I0
tp2597
g17
tp2598
Rp2599
(I1
(tg8
I00
S'a\x84\xbb\xa1p\x96\xf5?'
p2600
tp2601
bag4
(g8
S'\xa7g\xdd\x18m\x90\xf5?'
p2602
tp2603
Rp2604
ag14
(g15
(I0
tp2605
g17
tp2606
Rp2607
(I1
(tg8
I00
S'\xa2T\xd4\xdcO[\xf7?'
p2608
tp2609
baa(lp2610
g427
ag4
(g8
S't\x9d\x1b\x10\xccd\xf4?'
p2611
tp2612
Rp2613
ag14
(g15
(I0
tp2614
g17
tp2615
Rp2616
(I1
(tg8
I00
S'\x94q\x1e\xd2\xaa{\xf5?'
p2617
tp2618
bag4
(g8
S' \x94\xbe\x80\xd6\xa4\xf5?'
p2619
tp2620
Rp2621
ag14
(g15
(I0
tp2622
g17
tp2623
Rp2624
(I1
(tg8
I00
S'\xd9m\x03/c\x9c\xf7?'
p2625
tp2626
baa(lp2627
g445
ag4
(g8
S'\xbd\x18\x1f\x13\xad\xd0\xf5?'
p2628
tp2629
Rp2630
ag14
(g15
(I0
tp2631
g17
tp2632
Rp2633
(I1
(tg8
I00
S'\xff!\xdc\x06\x80\x15\x04@'
p2634
tp2635
bag4
(g8
S'\xdf\xae\x04\xa8\x00+\xf7?'
p2636
tp2637
Rp2638
ag14
(g15
(I0
tp2639
g17
tp2640
Rp2641
(I1
(tg8
I00
S'\x02\xa7\xacy\xefl\x05@'
p2642
tp2643
baa(lp2644
g463
ag4
(g8
S'f\n\x8e!_\xc2\xf5?'
p2645
tp2646
Rp2647
ag14
(g15
(I0
tp2648
g17
tp2649
Rp2650
(I1
(tg8
I00
S'\xa5}\x94\x8d\xf0\x17\x04@'
p2651
tp2652
bag4
(g8
S'\xd1\x8c\xb1\xecD \xf7?'
p2653
tp2654
Rp2655
ag14
(g15
(I0
tp2656
g17
tp2657
Rp2658
(I1
(tg8
I00
S'\x1bNj#\xb3v\x05@'
p2659
tp2660
baa(lp2661
g481
ag4
(g8
S'bP:eZ\x0f\xf2?'
p2662
tp2663
Rp2664
ag14
(g15
(I0
tp2665
g17
tp2666
Rp2667
(I1
(tg8
I00
S'\xac\xd0%\xd4J\x00\xf6?'
p2668
tp2669
bag4
(g8
S'\x07\xf4a\xf4\xf6\xf6\xf3?'
p2670
tp2671
Rp2672
ag14
(g15
(I0
tp2673
g17
tp2674
Rp2675
(I1
(tg8
I00
S'@\xc2\xd8}\x14L\xf8?'
p2676
tp2677
baa(lp2678
g499
ag4
(g8
S'\xe1\x81k\t\xd3\x0c\xf2?'
p2679
tp2680
Rp2681
ag14
(g15
(I0
tp2682
g17
tp2683
Rp2684
(I1
(tg8
I00
S'\r\xa5\x8a\xe89\xe4\xf5?'
p2685
tp2686
bag4
(g8
S'\x00\xaaH?z!\xf4?'
p2687
tp2688
Rp2689
ag14
(g15
(I0
tp2690
g17
tp2691
Rp2692
(I1
(tg8
I00
S'\xd9\x86\xe9\x88\xe1\xf3\xf8?'
p2693
tp2694
baa(lp2695
g517
ag4
(g8
S'\xde~\x19\xe1\xf0\xc3\xf1?'
p2696
tp2697
Rp2698
ag14
(g15
(I0
tp2699
g17
tp2700
Rp2701
(I1
(tg8
I00
S'\x88\xc4~m\x0f\xb1\xf1?'
p2702
tp2703
bag4
(g8
S'[\x81\xb6\xe2r\x11\xf4?'
p2704
tp2705
Rp2706
ag14
(g15
(I0
tp2707
g17
tp2708
Rp2709
(I1
(tg8
I00
S'(\xa4\xed\xef.?\xf5?'
p2710
tp2711
baa(lp2712
g535
ag4
(g8
S'b\x9e\x16A\x11Q\xf1?'
p2713
tp2714
Rp2715
ag14
(g15
(I0
tp2716
g17
tp2717
Rp2718
(I1
(tg8
I00
S'\x08\x18r7\xbdY\xf1?'
p2719
tp2720
bag4
(g8
S'\xcaPm\x1c\xcd\xb4\xf3?'
p2721
tp2722
Rp2723
ag14
(g15
(I0
tp2724
g17
tp2725
Rp2726
(I1
(tg8
I00
S'\xf4\x7f\x84@\x07\x8c\xf4?'
p2727
tp2728
baa(lp2729
g553
ag4
(g8
S'\xd9\xbeh6<R\xf6?'
p2730
tp2731
Rp2732
ag14
(g15
(I0
tp2733
g17
tp2734
Rp2735
(I1
(tg8
I00
S'\x1c\xdb\xfe\xe7&:\x05@'
p2736
tp2737
bag4
(g8
S'\x02\xff~=\xedD\xf7?'
p2738
tp2739
Rp2740
ag14
(g15
(I0
tp2741
g17
tp2742
Rp2743
(I1
(tg8
I00
S'q\xa3\x1fEk/\x06@'
p2744
tp2745
baa(lp2746
g571
ag4
(g8
S'\xac\xa4\x0c&\xc4\x08\xf6?'
p2747
tp2748
Rp2749
ag14
(g15
(I0
tp2750
g17
tp2751
Rp2752
(I1
(tg8
I00
S'\xbd\xc2\xf1\x1bF\x04\x05@'
p2753
tp2754
bag4
(g8
S'\xb2\x15\xeb\xd8\xc4-\xf7?'
p2755
tp2756
Rp2757
ag14
(g15
(I0
tp2758
g17
tp2759
Rp2760
(I1
(tg8
I00
S'\xfd\xd9=\x1c(*\x06@'
p2761
tp2762
baa(lp2763
g589
ag4
(g8
S')\xfc\xcd\x90e\xfa\xf5?'
p2764
tp2765
Rp2766
ag14
(g15
(I0
tp2767
g17
tp2768
Rp2769
(I1
(tg8
I00
S'x\xe0\xecQ\xd3\xef\x04@'
p2770
tp2771
bag4
(g8
S'\x8c\xbeQ\xdc\xe8\x16\xf7?'
p2772
tp2773
Rp2774
ag14
(g15
(I0
tp2775
g17
tp2776
Rp2777
(I1
(tg8
I00
S'\xd4*\x16\xaa^\x03\x06@'
p2778
tp2779
baa(lp2780
g607
ag4
(g8
S'\x90\xd9v\x8b\xe8C\xf6?'
p2781
tp2782
Rp2783
ag14
(g15
(I0
tp2784
g17
tp2785
Rp2786
(I1
(tg8
I00
S'R6\x96\xee\x0fa\x05@'
p2787
tp2788
bag4
(g8
S'\xd7=n\xf2[0\xf7?'
p2789
tp2790
Rp2791
ag14
(g15
(I0
tp2792
g17
tp2793
Rp2794
(I1
(tg8
I00
S'\xa29\xd1.\x8aU\x06@'
p2795
tp2796
baa(lp2797
g625
ag4
(g8
S'0\xc0\x98\x8e9}\xf4?'
p2798
tp2799
Rp2800
ag14
(g15
(I0
tp2801
g17
tp2802
Rp2803
(I1
(tg8
I00
S'JwB\xcd\x17\x1a\xf8?'
p2804
tp2805
bag4
(g8
S'\xba\xa0\xa11\x13\xf3\xf5?'
p2806
tp2807
Rp2808
ag14
(g15
(I0
tp2809
g17
tp2810
Rp2811
(I1
(tg8
I00
S's\x97\xf5\xa5\x82\x8b\xfa?'
p2812
tp2813
baa(lp2814
g643
ag4
(g8
S'\xab\xc7\xe38\xee1\xf4?'
p2815
tp2816
Rp2817
ag14
(g15
(I0
tp2818
g17
tp2819
Rp2820
(I1
(tg8
I00
S'\x98\x8bGw\x0c\xd9\xf7?'
p2821
tp2822
bag4
(g8
S')\xab\x9f,>\xe6\xf5?'
p2823
tp2824
Rp2825
ag14
(g15
(I0
tp2826
g17
tp2827
Rp2828
(I1
(tg8
I00
S'\xbc\xb3\xb9\rZ\xbd\xfa?'
p2829
tp2830
baa(lp2831
g661
ag4
(g8
S']x\x92\x92E<\xf4?'
p2832
tp2833
Rp2834
ag14
(g15
(I0
tp2835
g17
tp2836
Rp2837
(I1
(tg8
I00
S'\x86\t\x86a)\xe1\xf7?'
p2838
tp2839
bag4
(g8
S'5\xdd7<\xf7\x98\xf5?'
p2840
tp2841
Rp2842
ag14
(g15
(I0
tp2843
g17
tp2844
Rp2845
(I1
(tg8
I00
S'\xe0vx8\xa9o\xfa?'
p2846
tp2847
baa(lp2848
g679
ag4
(g8
S'JS\xccO~9\xf4?'
p2849
tp2850
Rp2851
ag14
(g15
(I0
tp2852
g17
tp2853
Rp2854
(I1
(tg8
I00
S'{\xeej\x14c\x16\xf8?'
p2855
tp2856
bag4
(g8
S'I\xee\xc9\xa9\xe3[\xf5?'
p2857
tp2858
Rp2859
ag14
(g15
(I0
tp2860
g17
tp2861
Rp2862
(I1
(tg8
I00
S'b\xd4e\x17\xda\xd0\xf9?'
p2863
tp2864
baa(lp2865
g697
ag4
(g8
S'\xb2\xd44+\x02\xe9\xf3?'
p2866
tp2867
Rp2868
ag14
(g15
(I0
tp2869
g17
tp2870
Rp2871
(I1
(tg8
I00
S'\xeaa\x13b\xab\xaf\xf4?'
p2872
tp2873
bag4
(g8
S'\xed\x1f?O\xaeS\xf5?'
p2874
tp2875
Rp2876
ag14
(g15
(I0
tp2877
g17
tp2878
Rp2879
(I1
(tg8
I00
S'l\x9c\xec\x82I\xed\xf6?'
p2880
tp2881
baa(lp2882
g715
ag4
(g8
S'(\xb2W\x04\xfe\x13\xf4?'
p2883
tp2884
Rp2885
ag14
(g15
(I0
tp2886
g17
tp2887
Rp2888
(I1
(tg8
I00
S'\xbd\xce)\xc2\xed\xe3\xf4?'
p2889
tp2890
bag4
(g8
S'\xac\xaaI\xe59?\xf5?'
p2891
tp2892
Rp2893
ag14
(g15
(I0
tp2894
g17
tp2895
Rp2896
(I1
(tg8
I00
S'\x9a\xa7\x1d\xfaX\x1c\xf7?'
p2897
tp2898
baa(lp2899
g733
ag4
(g8
S'\xd5[gP\x05\xdc\xf3?'
p2900
tp2901
Rp2902
ag14
(g15
(I0
tp2903
g17
tp2904
Rp2905
(I1
(tg8
I00
S'\xcb\xc3\x93 \x84[\xf4?'
p2906
tp2907
bag4
(g8
S'u\x95^\t\x02.\xf5?'
p2908
tp2909
Rp2910
ag14
(g15
(I0
tp2911
g17
tp2912
Rp2913
(I1
(tg8
I00
S'\x8d!\x88\xae\xe0\xe3\xf6?'
p2914
tp2915
baa(lp2916
g751
ag4
(g8
S'#\xda\xf8\xd7\xa00\xf4?'
p2917
tp2918
Rp2919
ag14
(g15
(I0
tp2920
g17
tp2921
Rp2922
(I1
(tg8
I00
S'\x86G4\x95\xb0\x19\xf5?'
p2923
tp2924
bag4
(g8
S'\x8e\xa9\x06\x94@&\xf5?'
p2925
tp2926
Rp2927
ag14
(g15
(I0
tp2928
g17
tp2929
Rp2930
(I1
(tg8
I00
S"\x97\xb9\xcc'r^\xf6?"
p2931
tp2932
baa(lp2933
g769
ag4
(g8
S'B\x7f\xc0/\xa6L\xf5?'
p2934
tp2935
Rp2936
ag14
(g15
(I0
tp2937
g17
tp2938
Rp2939
(I1
(tg8
I00
S'\xa6}\x08\xa8\xae`\x04@'
p2940
tp2941
bag4
(g8
S'\x12j\x11\xb1h\xa1\xf6?'
p2942
tp2943
Rp2944
ag14
(g15
(I0
tp2945
g17
tp2946
Rp2947
(I1
(tg8
I00
S'\x10@\x82\xf2\xbd\xb1\x05@'
p2948
tp2949
baa(lp2950
g787
ag4
(g8
S'B\xa0\xd8\x97TJ\xf5?'
p2951
tp2952
Rp2953
ag14
(g15
(I0
tp2954
g17
tp2955
Rp2956
(I1
(tg8
I00
S'#\xe1wa&h\x04@'
p2957
tp2958
bag4
(g8
S'\'\x19Id"\x9c\xf6?'
p2959
tp2960
Rp2961
ag14
(g15
(I0
tp2962
g17
tp2963
Rp2964
(I1
(tg8
I00
S'\xc0O\xcd\xe0\xe8\xb4\x05@'
p2965
tp2966
baa(lp2967
g805
ag4
(g8
S'\x00\x9f\xf6(\rT\xf5?'
p2968
tp2969
Rp2970
ag14
(g15
(I0
tp2971
g17
tp2972
Rp2973
(I1
(tg8
I00
S'2\xb1\xd3\xf3\xe6\x9e\x04@'
p2974
tp2975
bag4
(g8
S'7\xa8\xc8\xfc\x00\xa8\xf6?'
p2976
tp2977
Rp2978
ag14
(g15
(I0
tp2979
g17
tp2980
Rp2981
(I1
(tg8
I00
S'\xca\xe2P\x11;\xe9\x05@'
p2982
tp2983
baa(lp2984
g823
ag4
(g8
S'\x86\xbcvg\x92r\xf5?'
p2985
tp2986
Rp2987
ag14
(g15
(I0
tp2988
g17
tp2989
Rp2990
(I1
(tg8
I00
S'3\xc2\xac\xf5`\x9f\x04@'
p2991
tp2992
bag4
(g8
S'#\xab\xc9\x9f6\xab\xf6?'
p2993
tp2994
Rp2995
ag14
(g15
(I0
tp2996
g17
tp2997
Rp2998
(I1
(tg8
I00
S'|rD\x8e\xbc\xd8\x05@'
p2999
tp3000
baa(lp3001
g841
ag4
(g8
S'1\xaa\xb8?\xc1\x08\xf2?'
p3002
tp3003
Rp3004
ag14
(g15
(I0
tp3005
g17
tp3006
Rp3007
(I1
(tg8
I00
S'p\x9b{\x8ere\xf5?'
p3008
tp3009
bag4
(g8
S'\x13\xea0\x99\xe7\xf5\xf3?'
p3010
tp3011
Rp3012
ag14
(g15
(I0
tp3013
g17
tp3014
Rp3015
(I1
(tg8
I00
S'<\x92\x17\xa8\xe8\x02\xf8?'
p3016
tp3017
baa(lp3018
g859
ag4
(g8
S'\xe9\xdf\xb1\xfcJ\xc8\xf1?'
p3019
tp3020
Rp3021
ag14
(g15
(I0
tp3022
g17
tp3023
Rp3024
(I1
(tg8
I00
S'\x9d\x01^a\x88;\xf5?'
p3025
tp3026
bag4
(g8
S'\xbe\xbc\x84\xa0\xac\xd7\xf3?'
p3027
tp3028
Rp3029
ag14
(g15
(I0
tp3030
g17
tp3031
Rp3032
(I1
(tg8
I00
S'.G\x9fha-\xf8?'
p3033
tp3034
baa(lp3035
g877
ag4
(g8
S'1\x88tq\x93\x16\xf2?'
p3036
tp3037
Rp3038
ag14
(g15
(I0
tp3039
g17
tp3040
Rp3041
(I1
(tg8
I00
S'Y\xe5\x99@\xcec\xf5?'
p3042
tp3043
bag4
(g8
S'\x17\x84\x80\xd4\x17k\xf4?'
p3044
tp3045
Rp3046
ag14
(g15
(I0
tp3047
g17
tp3048
Rp3049
(I1
(tg8
I00
S"'\x9f\t\xf5\xdc\xb0\xf8?"
p3050
tp3051
baa(lp3052
g895
ag4
(g8
S'\xc9\xcb\xa0B\xe6\x1b\xf2?'
p3053
tp3054
Rp3055
ag14
(g15
(I0
tp3056
g17
tp3057
Rp3058
(I1
(tg8
I00
S'\xf8\xeb\xc1\x9e\x91\x9e\xf5?'
p3059
tp3060
bag4
(g8
S'_\x17$i\x05\xb1\xf3?'
p3061
tp3062
Rp3063
ag14
(g15
(I0
tp3064
g17
tp3065
Rp3066
(I1
(tg8
I00
S'\x88\xad\x08r\x01Q\xf8?'
p3067
tp3068
baa(lp3069
g913
ag4
(g8
S'\xdf\xbe\xc5f\xf3\xb8\xf1?'
p3070
tp3071
Rp3072
ag14
(g15
(I0
tp3073
g17
tp3074
Rp3075
(I1
(tg8
I00
S'b\xb6\xc6\xaa\xee\xb5\xf1?'
p3076
tp3077
bag4
(g8
S'WT\r\x04~\xb9\xf3?'
p3078
tp3079
Rp3080
ag14
(g15
(I0
tp3081
g17
tp3082
Rp3083
(I1
(tg8
I00
S'\xddiI\x1c\xd0I\xf4?'
p3084
tp3085
baa(lp3086
g931
ag4
(g8
S'c\x14\xcb)\xf0\xbe\xf1?'
p3087
tp3088
Rp3089
ag14
(g15
(I0
tp3090
g17
tp3091
Rp3092
(I1
(tg8
I00
S'\x82(T\\\xa7|\xf1?'
p3093
tp3094
bag4
(g8
S'\xfb\xe9\xef\xbbLc\xf3?'
p3095
tp3096
Rp3097
ag14
(g15
(I0
tp3098
g17
tp3099
Rp3100
(I1
(tg8
I00
S'\xba\xe1\xde\xef\xa2\x8a\xf3?'
p3101
tp3102
baa(lp3103
g949
ag4
(g8
S's\xa5\x16\xea\xa8\x7f\xf1?'
p3104
tp3105
Rp3106
ag14
(g15
(I0
tp3107
g17
tp3108
Rp3109
(I1
(tg8
I00
S'\xcf\xf1\x82\xdb\xafU\xf1?'
p3110
tp3111
bag4
(g8
S'=ib\xa2\xf8\xc2\xf3?'
p3112
tp3113
Rp3114
ag14
(g15
(I0
tp3115
g17
tp3116
Rp3117
(I1
(tg8
I00
S'O\xe7\xae\x87\x8c\xb7\xf4?'
p3118
tp3119
baa(lp3120
g967
ag4
(g8
S'\xe7\xb7\xee\xcb\x9cX\xf1?'
p3121
tp3122
Rp3123
ag14
(g15
(I0
tp3124
g17
tp3125
Rp3126
(I1
(tg8
I00
S'\x12\x89v\x08\xdd\x07\xf1?'
p3127
tp3128
bag4
(g8
S'mb\xa8\xc6\xa3\xc6\xf3?'
p3129
tp3130
Rp3131
ag14
(g15
(I0
tp3132
g17
tp3133
Rp3134
(I1
(tg8
I00
S'Q+\xf5\xea\xfc\xa6\xf3?'
p3135
tp3136
baa(lp3137
g985
ag4
(g8
S'\xb7\xb2\x87e\xd2I\xf5?'
p3138
tp3139
Rp3140
ag14
(g15
(I0
tp3141
g17
tp3142
Rp3143
(I1
(tg8
I00
S'.\xe4\x1fxJs\x04@'
p3144
tp3145
bag4
(g8
S'O\xe3\x81\xb4\xe6\xa1\xf6?'
p3146
tp3147
Rp3148
ag14
(g15
(I0
tp3149
g17
tp3150
Rp3151
(I1
(tg8
I00
S'\x8a\xe0&XA\xc8\x05@'
p3152
tp3153
baa(lp3154
g1003
ag4
(g8
S'U(!\xa4dA\xf5?'
p3155
tp3156
Rp3157
ag14
(g15
(I0
tp3158
g17
tp3159
Rp3160
(I1
(tg8
I00
S'\xc9\xb2/\x9c=c\x04@'
p3161
tp3162
bag4
(g8
S'\xa5\xd2\xb0~3\x9d\xf6?'
p3163
tp3164
Rp3165
ag14
(g15
(I0
tp3166
g17
tp3167
Rp3168
(I1
(tg8
I00
S':)\xae\\l\xb9\x05@'
p3169
tp3170
baa(lp3171
g1021
ag4
(g8
S'RI\x0c\x1c\x10I\xf5?'
p3172
tp3173
Rp3174
ag14
(g15
(I0
tp3175
g17
tp3176
Rp3177
(I1
(tg8
I00
S'\xba\xfc\xe6\xb6Dv\x04@'
p3178
tp3179
bag4
(g8
S'h\xfc\x84\xe9\x01\xa1\xf6?'
p3180
tp3181
Rp3182
ag14
(g15
(I0
tp3183
g17
tp3184
Rp3185
(I1
(tg8
I00
S'\xf8\xbf\xa2\x1b\x1f\xcd\x05@'
p3186
tp3187
baa(lp3188
g1039
ag4
(g8
S'/ww\x0cW6\xf1?'
p3189
tp3190
Rp3191
ag14
(g15
(I0
tp3192
g17
tp3193
Rp3194
(I1
(tg8
I00
S'B\xa1\x86K\x9bz\xf4?'
p3195
tp3196
bag4
(g8
S'5\xfb\xc8\x01\xbf\xd1\xf3?'
p3197
tp3198
Rp3199
ag14
(g15
(I0
tp3200
g17
tp3201
Rp3202
(I1
(tg8
I00
S'\x0f\xaf\x08\x9a\xfc\x92\xf8?'
p3203
tp3204
baa(lp3205
g1057
ag4
(g8
S'\x8b\xef\xdb\xd4j\xf6\xf0?'
p3206
tp3207
Rp3208
ag14
(g15
(I0
tp3209
g17
tp3210
Rp3211
(I1
(tg8
I00
S'N%\x17\xc5\xcau\xf4?'
p3212
tp3213
bag4
(g8
S'\xc5l\xab\xa8 \xbc\xf3?'
p3214
tp3215
Rp3216
ag14
(g15
(I0
tp3217
g17
tp3218
Rp3219
(I1
(tg8
I00
S'N\xf9\x83c\xbbk\xf8?'
p3220
tp3221
baa(lp3222
g1075
ag4
(g8
S'\x08;\x01\xc1@\x1b\xf1?'
p3223
tp3224
Rp3225
ag14
(g15
(I0
tp3226
g17
tp3227
Rp3228
(I1
(tg8
I00
S'\xeb\xdbz\xa2\xc3\x91\xf4?'
p3229
tp3230
bag4
(g8
S'yT\xaf5Kg\xf3?'
p3231
tp3232
Rp3233
ag14
(g15
(I0
tp3234
g17
tp3235
Rp3236
(I1
(tg8
I00
S'\x89h\xd8\xed\xe5\x06\xf8?'
p3237
tp3238
baa(lp3239
g1093
ag4
(g8
S'N\r\xcfmZM\xf0?'
p3240
tp3241
Rp3242
ag14
(g15
(I0
tp3243
g17
tp3244
Rp3245
(I1
(tg8
I00
S'wt&-"\xd3\xee?'
p3246
tp3247
bag4
(g8
S'\x1b\xb0t\xcaV\xc4\xf3?'
p3248
tp3249
Rp3250
ag14
(g15
(I0
tp3251
g17
tp3252
Rp3253
(I1
(tg8
I00
S'\x01A\xb2Z\xb8\x1b\xf4?'
p3254
tp3255
baa(lp3256
g1111
ag4
(g8
S'\xe8i\x12\x90\x87T\xf0?'
p3257
tp3258
Rp3259
ag14
(g15
(I0
tp3260
g17
tp3261
Rp3262
(I1
(tg8
I00
S'\x0b>,W\xce\xf5\xee?'
p3263
tp3264
bag4
(g8
S'\xff\x11\xa9\x1eYz\xf3?'
p3265
tp3266
Rp3267
ag14
(g15
(I0
tp3268
g17
tp3269
Rp3270
(I1
(tg8
I00
S'\x82\x0c\xc7h\xefg\xf4?'
p3271
tp3272
baa(lp3273
g1129
ag4
(g8
S'\x87\xb9\xd9\xf3w4\xf0?'
p3274
tp3275
Rp3276
ag14
(g15
(I0
tp3277
g17
tp3278
Rp3279
(I1
(tg8
I00
S'\xdf\xde\xd7\xa5\x85\xca\xed?'
p3280
tp3281
bag4
(g8
S':\x1d\xaf\xf6\x06\xfa\xf2?'
p3282
tp3283
Rp3284
ag14
(g15
(I0
tp3285
g17
tp3286
Rp3287
(I1
(tg8
I00
S'\xc1\xbbL\x8d\x1fn\xf3?'
p3288
tp3289
baaa(lp3290
(lp3291
g3
ag4
(g8
S'\xbe\xef|\x12\x94W\xf8?'
p3292
tp3293
Rp3294
ag14
(g15
(I0
tp3295
g17
tp3296
Rp3297
(I1
(tg8
I00
S"\x9e-\xbc+\x9c'\x06@"
p3298
tp3299
bag4
(g8
S'\xac\x04&u+\xd7\xf7?'
p3300
tp3301
Rp3302
ag14
(g15
(I0
tp3303
g17
tp3304
Rp3305
(I1
(tg8
I00
S'\nA\x98\x13F\x94\x04@'
p3306
tp3307
baa(lp3308
g31
ag4
(g8
S'\x9f\xc3\xda\xaf#\x9b\xf8?'
p3309
tp3310
Rp3311
ag14
(g15
(I0
tp3312
g17
tp3313
Rp3314
(I1
(tg8
I00
S'3\xab\xb2\xac\xf2{\x06@'
p3315
tp3316
bag4
(g8
S'i\x86(\x1f\x11\x19\xf8?'
p3317
tp3318
Rp3319
ag14
(g15
(I0
tp3320
g17
tp3321
Rp3322
(I1
(tg8
I00
S'\n\xe4L\xde\xe4\xdc\x04@'
p3323
tp3324
baa(lp3325
g49
ag4
(g8
S'\xd6S\xfd\x9dGA\xf8?'
p3326
tp3327
Rp3328
ag14
(g15
(I0
tp3329
g17
tp3330
Rp3331
(I1
(tg8
I00
S'%\x16\x0b|\xd2C\x06@'
p3332
tp3333
bag4
(g8
S'\xbe\x93U)"\xb9\xf7?'
p3334
tp3335
Rp3336
ag14
(g15
(I0
tp3337
g17
tp3338
Rp3339
(I1
(tg8
I00
S'\xde\xc1AC\x9b\xa3\x04@'
p3340
tp3341
baa(lp3342
g67
ag4
(g8
S'\xe1f|I1~\xf8?'
p3343
tp3344
Rp3345
ag14
(g15
(I0
tp3346
g17
tp3347
Rp3348
(I1
(tg8
I00
S'\x04\x84M0\xaf[\x06@'
p3349
tp3350
bag4
(g8
S'\xe6\xd2?\xc9d\x08\xf8?'
p3351
tp3352
Rp3353
ag14
(g15
(I0
tp3354
g17
tp3355
Rp3356
(I1
(tg8
I00
S'\xac\xac\x1d\xc0\xef\xd0\x04@'
p3357
tp3358
baa(lp3359
g85
ag4
(g8
S'0\xc2&\xd8\xa4\xf5\xf5?'
p3360
tp3361
Rp3362
ag14
(g15
(I0
tp3363
g17
tp3364
Rp3365
(I1
(tg8
I00
S'fQ\x04.!1\xfc?'
p3366
tp3367
bag4
(g8
S'/\x9e\xb0hFe\xf5?'
p3368
tp3369
Rp3370
ag14
(g15
(I0
tp3371
g17
tp3372
Rp3373
(I1
(tg8
I00
S'6]p\nGn\xf8?'
p3374
tp3375
baa(lp3376
g103
ag4
(g8
S'\x10\xb0\x87\x82\x91\xdb\xf5?'
p3377
tp3378
Rp3379
ag14
(g15
(I0
tp3380
g17
tp3381
Rp3382
(I1
(tg8
I00
S'[\x1ao\x81\x1e\xeb\xfb?'
p3383
tp3384
bag4
(g8
S'>7\xca\xad\xd3T\xf5?'
p3385
tp3386
Rp3387
ag14
(g15
(I0
tp3388
g17
tp3389
Rp3390
(I1
(tg8
I00
S'h\xb1\x81\xdb M\xf8?'
p3391
tp3392
baa(lp3393
g121
ag4
(g8
S'\xf0\x11i\x8c\xd7\xfc\xf5?'
p3394
tp3395
Rp3396
ag14
(g15
(I0
tp3397
g17
tp3398
Rp3399
(I1
(tg8
I00
S'\x04[\x81\x03\x91N\xfc?'
p3400
tp3401
bag4
(g8
S'U\xa25\xa2R\x97\xf5?'
p3402
tp3403
Rp3404
ag14
(g15
(I0
tp3405
g17
tp3406
Rp3407
(I1
(tg8
I00
S'\x12\x91\x81\xd8\x1a\xd7\xf8?'
p3408
tp3409
baa(lp3410
g139
ag4
(g8
S'\xb0\x86\xd8\nP\x12\xf6?'
p3411
tp3412
Rp3413
ag14
(g15
(I0
tp3414
g17
tp3415
Rp3416
(I1
(tg8
I00
S'\xfe\x16^5}\xaa\xfc?'
p3417
tp3418
bag4
(g8
S'\xfb\\\xe3\x88\xb4\xa0\xf5?'
p3419
tp3420
Rp3421
ag14
(g15
(I0
tp3422
g17
tp3423
Rp3424
(I1
(tg8
I00
S'?\x89B\xc4\x00\x90\xf8?'
p3425
tp3426
baa(lp3427
g157
ag4
(g8
S'\xb7\xf1\xb8\xfb \x94\xf5?'
p3428
tp3429
Rp3430
ag14
(g15
(I0
tp3431
g17
tp3432
Rp3433
(I1
(tg8
I00
S'\xa5C\xb8\x82\xc7\xc9\xf7?'
p3434
tp3435
bag4
(g8
S'\xb0\x1b#C\xfd^\xf5?'
p3436
tp3437
Rp3438
ag14
(g15
(I0
tp3439
g17
tp3440
Rp3441
(I1
(tg8
I00
S'\xe0i\xf9\xaa\xf1l\xf4?'
p3442
tp3443
baa(lp3444
g175
ag4
(g8
S'\xf9\xeb\x98\xc3O\x9e\xf5?'
p3445
tp3446
Rp3447
ag14
(g15
(I0
tp3448
g17
tp3449
Rp3450
(I1
(tg8
I00
S'\xd3\x98H\xa3=\xc6\xf7?'
p3451
tp3452
bag4
(g8
S'2\xa3\xdb\xa6\xdf\x15\xf5?'
p3453
tp3454
Rp3455
ag14
(g15
(I0
tp3456
g17
tp3457
Rp3458
(I1
(tg8
I00
S'\xc4w\x00\x1d\x120\xf4?'
p3459
tp3460
baa(lp3461
g193
ag4
(g8
S'\x8a\xc39F\xe7l\xf5?'
p3462
tp3463
Rp3464
ag14
(g15
(I0
tp3465
g17
tp3466
Rp3467
(I1
(tg8
I00
S'\xf8\xfe\xa4W\xa4\x90\xf7?'
p3468
tp3469
bag4
(g8
S'\x85\xaa6\xc1B+\xf5?'
p3470
tp3471
Rp3472
ag14
(g15
(I0
tp3473
g17
tp3474
Rp3475
(I1
(tg8
I00
S'\x10Nz\x85r,\xf4?'
p3476
tp3477
baa(lp3478
g211
ag4
(g8
S"?',\xe1\xc0\xa9\xf5?"
p3479
tp3480
Rp3481
ag14
(g15
(I0
tp3482
g17
tp3483
Rp3484
(I1
(tg8
I00
S'\x17\xe0\x9d\x8c\x93\xd5\xf7?'
p3485
tp3486
bag4
(g8
S'\x9d\xdd\x13\xc9JU\xf5?'
p3487
tp3488
Rp3489
ag14
(g15
(I0
tp3490
g17
tp3491
Rp3492
(I1
(tg8
I00
S'*\xd5\xb8\xc4+a\xf4?'
p3493
tp3494
baa(lp3495
g229
ag4
(g8
S'\x05nr\xb3K\x87\xf7?'
p3496
tp3497
Rp3498
ag14
(g15
(I0
tp3499
g17
tp3500
Rp3501
(I1
(tg8
I00
S'x`\xbd\xab_\xb5\x05@'
p3502
tp3503
bag4
(g8
S'E\x83\xcf\xbf\xbf\xf2\xf6?'
p3504
tp3505
Rp3506
ag14
(g15
(I0
tp3507
g17
tp3508
Rp3509
(I1
(tg8
I00
S'c\x18\xa2\x90F\r\x04@'
p3510
tp3511
baa(lp3512
g247
ag4
(g8
S'\r<\xca\xc1%\x8b\xf7?'
p3513
tp3514
Rp3515
ag14
(g15
(I0
tp3516
g17
tp3517
Rp3518
(I1
(tg8
I00
S'R\x1c\xe3\xc6\x98\xc0\x05@'
p3519
tp3520
bag4
(g8
S'35\xdb+\xcc\xf1\xf6?'
p3521
tp3522
Rp3523
ag14
(g15
(I0
tp3524
g17
tp3525
Rp3526
(I1
(tg8
I00
S'&\xfc\x83MV\x18\x04@'
p3527
tp3528
baa(lp3529
g265
ag4
(g8
S'\xad\xe6mZT\xc1\xf7?'
p3530
tp3531
Rp3532
ag14
(g15
(I0
tp3533
g17
tp3534
Rp3535
(I1
(tg8
I00
S'[\xb5\xcb\x8f\x0f\xcd\x05@'
p3536
tp3537
bag4
(g8
S'\xfaQ\xac0x4\xf7?'
p3538
tp3539
Rp3540
ag14
(g15
(I0
tp3541
g17
tp3542
Rp3543
(I1
(tg8
I00
S'\xaf\x95\xa0\x01\x9c&\x04@'
p3544
tp3545
baa(lp3546
g283
ag4
(g8
S'[J\x8d\xc3\xf9\x91\xf7?'
p3547
tp3548
Rp3549
ag14
(g15
(I0
tp3550
g17
tp3551
Rp3552
(I1
(tg8
I00
S'\xfcjs\x9f\xa1\xb6\x05@'
p3553
tp3554
bag4
(g8
S'\xf1\x88\xfb\xec\x18\xf4\xf6?'
p3555
tp3556
Rp3557
ag14
(g15
(I0
tp3558
g17
tp3559
Rp3560
(I1
(tg8
I00
S't\xc6}\x8du\t\x04@'
p3561
tp3562
baa(lp3563
g301
ag4
(g8
S'\xdda\x1d\xb30\x00\xf5?'
p3564
tp3565
Rp3566
ag14
(g15
(I0
tp3567
g17
tp3568
Rp3569
(I1
(tg8
I00
S'\x18\xecW\xd8y\xe0\xf9?'
p3570
tp3571
bag4
(g8
S'\x13Jo\xb0#\xa9\xf4?'
p3572
tp3573
Rp3574
ag14
(g15
(I0
tp3575
g17
tp3576
Rp3577
(I1
(tg8
I00
S'v\x8f\xdaB\x84\x92\xf6?'
p3578
tp3579
baa(lp3580
g319
ag4
(g8
S'\xbe\xbe\x9a_|,\xf5?'
p3581
tp3582
Rp3583
ag14
(g15
(I0
tp3584
g17
tp3585
Rp3586
(I1
(tg8
I00
S'z\xf9\xc9\x98\x83\xee\xf9?'
p3587
tp3588
bag4
(g8
S"[\x94'\x9d\xc5\xe9\xf4?"
p3589
tp3590
Rp3591
ag14
(g15
(I0
tp3592
g17
tp3593
Rp3594
(I1
(tg8
I00
S'c\xdb\xf0\x7fM\x85\xf6?'
p3595
tp3596
baa(lp3597
g337
ag4
(g8
S'/\xa8$\x940\x9d\xf5?'
p3598
tp3599
Rp3600
ag14
(g15
(I0
tp3601
g17
tp3602
Rp3603
(I1
(tg8
I00
S'\x0c\xcb\xfbT\xe4\x95\xfa?'
p3604
tp3605
bag4
(g8
S'\x9e\x93\xace\xa4\xfc\xf4?'
p3606
tp3607
Rp3608
ag14
(g15
(I0
tp3609
g17
tp3610
Rp3611
(I1
(tg8
I00
S'\xbf)\x07?\xd9\xbc\xf6?'
p3612
tp3613
baa(lp3614
g355
ag4
(g8
S'\xdd\x1f\x15\xd9\xdep\xf5?'
p3615
tp3616
Rp3617
ag14
(g15
(I0
tp3618
g17
tp3619
Rp3620
(I1
(tg8
I00
S'\x82%\x85\x03\xa8Q\xfa?'
p3621
tp3622
bag4
(g8
S'\x920\xfe(\xe3\t\xf5?'
p3623
tp3624
Rp3625
ag14
(g15
(I0
tp3626
g17
tp3627
Rp3628
(I1
(tg8
I00
S'\xd4\x88\xc5\xb2e\xfa\xf6?'
p3629
tp3630
baa(lp3631
g373
ag4
(g8
S'\xc7:\x13\xe1\x80\x0e\xf5?'
p3632
tp3633
Rp3634
ag14
(g15
(I0
tp3635
g17
tp3636
Rp3637
(I1
(tg8
I00
S'\xa7\x98\x02\x1e\xa9\xe6\xf6?'
p3638
tp3639
bag4
(g8
S'\xdfp\xc7L\x08z\xf4?'
p3640
tp3641
Rp3642
ag14
(g15
(I0
tp3643
g17
tp3644
Rp3645
(I1
(tg8
I00
S'\tL\xb2\xe9m=\xf3?'
p3646
tp3647
baa(lp3648
g391
ag4
(g8
S'}\xb6\r\xc7\xa3c\xf5?'
p3649
tp3650
Rp3651
ag14
(g15
(I0
tp3652
g17
tp3653
Rp3654
(I1
(tg8
I00
S'|\xfb%\xbc\x98A\xf7?'
p3655
tp3656
bag4
(g8
S'P\xfe\xf0\xf3\xf9\x03\xf5?'
p3657
tp3658
Rp3659
ag14
(g15
(I0
tp3660
g17
tp3661
Rp3662
(I1
(tg8
I00
S',\xdf\x0c\xb8]\xfe\xf3?'
p3663
tp3664
baa(lp3665
g409
ag4
(g8
S'\xa3\x0cx\xb6T[\xf5?'
p3666
tp3667
Rp3668
ag14
(g15
(I0
tp3669
g17
tp3670
Rp3671
(I1
(tg8
I00
S'3\xeb}\x84\x177\xf7?'
p3672
tp3673
bag4
(g8
S'\xf2\xc8\x17oy\x02\xf5?'
p3674
tp3675
Rp3676
ag14
(g15
(I0
tp3677
g17
tp3678
Rp3679
(I1
(tg8
I00
S'\x8e\xa1;\x9a\xa2\xe6\xf3?'
p3680
tp3681
baa(lp3682
g427
ag4
(g8
S'\x89@g\xf7a\xc3\xf4?'
p3683
tp3684
Rp3685
ag14
(g15
(I0
tp3686
g17
tp3687
Rp3688
(I1
(tg8
I00
S'\x98KpA\xbdO\xf6?'
p3689
tp3690
bag4
(g8
S'\x97}x\x11\xc5`\xf4?'
p3691
tp3692
Rp3693
ag14
(g15
(I0
tp3694
g17
tp3695
Rp3696
(I1
(tg8
I00
S'xU\xb2\xc1%\xcf\xf2?'
p3697
tp3698
baa(lp3699
g445
ag4
(g8
S'1{p\xb5\xfaT\xf6?'
p3700
tp3701
Rp3702
ag14
(g15
(I0
tp3703
g17
tp3704
Rp3705
(I1
(tg8
I00
S'\x06\x98i\x90\xf4\xa2\x04@'
p3706
tp3707
bag4
(g8
S'n\x12moI\xe9\xf5?'
p3708
tp3709
Rp3710
ag14
(g15
(I0
tp3711
g17
tp3712
Rp3713
(I1
(tg8
I00
S'\x80\xa1-vy&\x03@'
p3714
tp3715
baa(lp3716
g463
ag4
(g8
S'f]\xc0\xb8l?\xf6?'
p3717
tp3718
Rp3719
ag14
(g15
(I0
tp3720
g17
tp3721
Rp3722
(I1
(tg8
I00
S'\xce\x00#\xba\xd0\xb1\x04@'
p3723
tp3724
bag4
(g8
S'B5\x89\x85\x0c\xbc\xf5?'
p3725
tp3726
Rp3727
ag14
(g15
(I0
tp3728
g17
tp3729
Rp3730
(I1
(tg8
I00
S'\x9eT\xeb\xdb\x92&\x03@'
p3731
tp3732
baa(lp3733
g481
ag4
(g8
S'(\x88\xac\xf6\xb4\x86\xf2?'
p3734
tp3735
Rp3736
ag14
(g15
(I0
tp3737
g17
tp3738
Rp3739
(I1
(tg8
I00
S'\xe3\xdfW\xb2\x9a\xf1\xf6?'
p3740
tp3741
bag4
(g8
S'\xb4\\\xff\xfd\xf1A\xf3?'
p3742
tp3743
Rp3744
ag14
(g15
(I0
tp3745
g17
tp3746
Rp3747
(I1
(tg8
I00
S'\xc7\xdbc\xb1<\xc6\xf5?'
p3748
tp3749
baa(lp3750
g499
ag4
(g8
S'\x1e\x154\xbf_\x89\xf2?'
p3751
tp3752
Rp3753
ag14
(g15
(I0
tp3754
g17
tp3755
Rp3756
(I1
(tg8
I00
S'Sb|/\xbd\xd1\xf6?'
p3757
tp3758
bag4
(g8
S'/?\xbb\xcd\xe5\x1a\xf3?'
p3759
tp3760
Rp3761
ag14
(g15
(I0
tp3762
g17
tp3763
Rp3764
(I1
(tg8
I00
S'\x88e\x9a\xa7\xeas\xf5?'
p3765
tp3766
baa(lp3767
g517
ag4
(g8
S'_\n\xdb\xacm\x80\xf1?'
p3768
tp3769
Rp3770
ag14
(g15
(I0
tp3771
g17
tp3772
Rp3773
(I1
(tg8
I00
S'\x04\xc7\xea\xa7O\x82\xf1?'
p3774
tp3775
bag4
(g8
S'\x1e\x0f\xe3\xca\x9f\x9b\xf2?'
p3776
tp3777
Rp3778
ag14
(g15
(I0
tp3779
g17
tp3780
Rp3781
(I1
(tg8
I00
S'p\x82\xed\xeaA\x17\xf1?'
p3782
tp3783
baa(lp3784
g535
ag4
(g8
S'2\xd1\xe2\x12\x1c\x08\xf2?'
p3785
tp3786
Rp3787
ag14
(g15
(I0
tp3788
g17
tp3789
Rp3790
(I1
(tg8
I00
S'\xf3 \xb5sGE\xf2?'
p3791
tp3792
bag4
(g8
S'\xc7\xa4\xf0\xb9\xd5\x94\xf2?'
p3793
tp3794
Rp3795
ag14
(g15
(I0
tp3796
g17
tp3797
Rp3798
(I1
(tg8
I00
S'Y>o\x81b\xed\xf0?'
p3799
tp3800
baa(lp3801
g553
ag4
(g8
S'\xa67\xe3\xc8\xd9\xbb\xf6?'
p3802
tp3803
Rp3804
ag14
(g15
(I0
tp3805
g17
tp3806
Rp3807
(I1
(tg8
I00
S'\xf2\x13\xee|3\xe9\x05@'
p3808
tp3809
bag4
(g8
S'\xe7!\xfe\x84\xd3!\xf6?'
p3810
tp3811
Rp3812
ag14
(g15
(I0
tp3813
g17
tp3814
Rp3815
(I1
(tg8
I00
S'\xe8!eN\xfb6\x04@'
p3816
tp3817
baa(lp3818
g571
ag4
(g8
S'\xd2n\xd4\xa8\xb9\xc5\xf6?'
p3819
tp3820
Rp3821
ag14
(g15
(I0
tp3822
g17
tp3823
Rp3824
(I1
(tg8
I00
S'\xf4\x13\x90\x13k\xcd\x05@'
p3825
tp3826
bag4
(g8
S'u\x128\xa9\xce-\xf6?'
p3827
tp3828
Rp3829
ag14
(g15
(I0
tp3830
g17
tp3831
Rp3832
(I1
(tg8
I00
S'Z\xa3)t\x8d\x1b\x04@'
p3833
tp3834
baa(lp3835
g589
ag4
(g8
S'\xa5<\x11$\xf7\x8f\xf6?'
p3836
tp3837
Rp3838
ag14
(g15
(I0
tp3839
g17
tp3840
Rp3841
(I1
(tg8
I00
S'\xba0\x97II\xe1\x05@'
p3842
tp3843
bag4
(g8
S'\x92\x94\xb1H\xf1\xdd\xf5?'
p3844
tp3845
Rp3846
ag14
(g15
(I0
tp3847
g17
tp3848
Rp3849
(I1
(tg8
I00
S'\x0e\x12\xa5\x9d\t\x1a\x04@'
p3850
tp3851
baa(lp3852
g607
ag4
(g8
S'2\xc1\xf1\xe0\x8a\x81\xf6?'
p3853
tp3854
Rp3855
ag14
(g15
(I0
tp3856
g17
tp3857
Rp3858
(I1
(tg8
I00
S'X\xd8\xbf\xd8\xda\xa0\x05@'
p3859
tp3860
bag4
(g8
S'\xd6g\xfa\xd0\n\xf2\xf5?'
p3861
tp3862
Rp3863
ag14
(g15
(I0
tp3864
g17
tp3865
Rp3866
(I1
(tg8
I00
S'\xf4\xe9\x88\xae\xea\xe7\x03@'
p3867
tp3868
baa(lp3869
g625
ag4
(g8
S'\x16\xf4\\=c\xaf\xf4?'
p3870
tp3871
Rp3872
ag14
(g15
(I0
tp3873
g17
tp3874
Rp3875
(I1
(tg8
I00
S'2\xf0\x82\xa3l\xc7\xf8?'
p3876
tp3877
bag4
(g8
S'0di\xdbj \xf4?'
p3878
tp3879
Rp3880
ag14
(g15
(I0
tp3881
g17
tp3882
Rp3883
(I1
(tg8
I00
S'$\x8a \xc1)\xa0\xf5?'
p3884
tp3885
baa(lp3886
g643
ag4
(g8
S'E\xeb\xefZn\xdb\xf4?'
p3887
tp3888
Rp3889
ag14
(g15
(I0
tp3890
g17
tp3891
Rp3892
(I1
(tg8
I00
S'\xf62!\x18\xed \xf9?'
p3893
tp3894
bag4
(g8
S"\x10\x9b9\x99e'\xf4?"
p3895
tp3896
Rp3897
ag14
(g15
(I0
tp3898
g17
tp3899
Rp3900
(I1
(tg8
I00
S'\x8c\x94\xfe\x1a\x91\x88\xf5?'
p3901
tp3902
baa(lp3903
g661
ag4
(g8
S';4B\xc5\xdd&\xf5?'
p3904
tp3905
Rp3906
ag14
(g15
(I0
tp3907
g17
tp3908
Rp3909
(I1
(tg8
I00
S'$\x8a\x81t\x91\x81\xf9?'
p3910
tp3911
bag4
(g8
S'4N|kF^\xf4?'
p3912
tp3913
Rp3914
ag14
(g15
(I0
tp3915
g17
tp3916
Rp3917
(I1
(tg8
I00
S'K\xddD\x7f$\xcf\xf5?'
p3918
tp3919
baa(lp3920
g679
ag4
(g8
S'\xbd\x0c\xb0x\xf1z\xf4?'
p3921
tp3922
Rp3923
ag14
(g15
(I0
tp3924
g17
tp3925
Rp3926
(I1
(tg8
I00
S'\x00k\xad\x12\xf1\xba\xf8?'
p3927
tp3928
bag4
(g8
S'\x9bW\x96\xf4\xe7S\xf4?'
p3929
tp3930
Rp3931
ag14
(g15
(I0
tp3932
g17
tp3933
Rp3934
(I1
(tg8
I00
S'\xc7\xe29\xdb\x03*\xf6?'
p3935
tp3936
baa(lp3937
g697
ag4
(g8
S'\x91\xd8D$\xeb\xa1\xf4?'
p3938
tp3939
Rp3940
ag14
(g15
(I0
tp3941
g17
tp3942
Rp3943
(I1
(tg8
I00
S'\xb8\xd1\xa6?J\\\xf6?'
p3944
tp3945
bag4
(g8
S'\x18,\xa0n\xea\xa8\xf3?'
p3946
tp3947
Rp3948
ag14
(g15
(I0
tp3949
g17
tp3950
Rp3951
(I1
(tg8
I00
S'\xe5\xa6k\xddv\x94\xf2?'
p3952
tp3953
baa(lp3954
g715
ag4
(g8
S'qE\x1a\x1e\xd2\x87\xf4?'
p3955
tp3956
Rp3957
ag14
(g15
(I0
tp3958
g17
tp3959
Rp3960
(I1
(tg8
I00
S'\xc8\x99\xf0\x98\xa6\x1c\xf6?'
p3961
tp3962
bag4
(g8
S'k+3\xd6\xf2\x1f\xf4?'
p3963
tp3964
Rp3965
ag14
(g15
(I0
tp3966
g17
tp3967
Rp3968
(I1
(tg8
I00
S'\x1f\xbd\x06\xa0\xb7\xb1\xf2?'
p3969
tp3970
baa(lp3971
g733
ag4
(g8
S'!\x1f\xb5\x96\x8eW\xf4?'
p3972
tp3973
Rp3974
ag14
(g15
(I0
tp3975
g17
tp3976
Rp3977
(I1
(tg8
I00
S'>\x1eD\xa5G\xdf\xf5?'
p3978
tp3979
bag4
(g8
S'\x87\x95&\xe1\xa6\xca\xf3?'
p3980
tp3981
Rp3982
ag14
(g15
(I0
tp3983
g17
tp3984
Rp3985
(I1
(tg8
I00
S'\xed\xd6\xb5#\xc0g\xf2?'
p3986
tp3987
baa(lp3988
g751
ag4
(g8
S'E\xb6A\x17\xb2\xa5\xf4?'
p3989
tp3990
Rp3991
ag14
(g15
(I0
tp3992
g17
tp3993
Rp3994
(I1
(tg8
I00
S'[>\xfe\xf5g8\xf6?'
p3995
tp3996
bag4
(g8
S'\x9c\xfb\xce\xc2\xbb,\xf4?'
p3997
tp3998
Rp3999
ag14
(g15
(I0
tp4000
g17
tp4001
Rp4002
(I1
(tg8
I00
S'\xda\xd3]D[\xf8\xf2?'
p4003
tp4004
baa(lp4005
g769
ag4
(g8
S'S\tj\x84`\xe2\xf5?'
p4006
tp4007
Rp4008
ag14
(g15
(I0
tp4009
g17
tp4010
Rp4011
(I1
(tg8
I00
S'\xa0d\xa3GZ\x10\x05@'
p4012
tp4013
bag4
(g8
S'\x0eQn\x87\xcfI\xf5?'
p4014
tp4015
Rp4016
ag14
(g15
(I0
tp4017
g17
tp4018
Rp4019
(I1
(tg8
I00
S'\xef\xa7\x05"\xe4g\x03@'
p4020
tp4021
baa(lp4022
g787
ag4
(g8
S'\xd5?\xa7\xc3\x82\xe2\xf5?'
p4023
tp4024
Rp4025
ag14
(g15
(I0
tp4026
g17
tp4027
Rp4028
(I1
(tg8
I00
S'\xd1F\x1d"~\x1d\x05@'
p4029
tp4030
bag4
(g8
S'\xdf\xdd\t\xe8\xf1K\xf5?'
p4031
tp4032
Rp4033
ag14
(g15
(I0
tp4034
g17
tp4035
Rp4036
(I1
(tg8
I00
S'v;\xc8\x12\xc9u\x03@'
p4037
tp4038
baa(lp4039
g805
ag4
(g8
S'7\xdb\xf5\xef\x9f\xe9\xf5?'
p4040
tp4041
Rp4042
ag14
(g15
(I0
tp4043
g17
tp4044
Rp4045
(I1
(tg8
I00
S'\x17m: \x023\x05@'
p4046
tp4047
bag4
(g8
S'9U\x84eUd\xf5?'
p4048
tp4049
Rp4050
ag14
(g15
(I0
tp4051
g17
tp4052
Rp4053
(I1
(tg8
I00
S'b\xd0}o\xe4\x91\x03@'
p4054
tp4055
baa(lp4056
g823
ag4
(g8
S'\xe1e\x10E\x80\xe3\xf5?'
p4057
tp4058
Rp4059
ag14
(g15
(I0
tp4060
g17
tp4061
Rp4062
(I1
(tg8
I00
S':m\xc5aGR\x05@'
p4063
tp4064
bag4
(g8
S'A\xef\x19\x94\xfch\xf5?'
p4065
tp4066
Rp4067
ag14
(g15
(I0
tp4068
g17
tp4069
Rp4070
(I1
(tg8
I00
S'0m\x94|\xb7\xb3\x03@'
p4071
tp4072
baa(lp4073
g841
ag4
(g8
S'\x1ez\xdcE7\x8d\xf2?'
p4074
tp4075
Rp4076
ag14
(g15
(I0
tp4077
g17
tp4078
Rp4079
(I1
(tg8
I00
S'V\x13\xb2\x0e\x12^\xf6?'
p4080
tp4081
bag4
(g8
S'd\xf1\xbc/\xbd\xc8\xf2?'
p4082
tp4083
Rp4084
ag14
(g15
(I0
tp4085
g17
tp4086
Rp4087
(I1
(tg8
I00
S'\xa2+D\xf2\x13[\xf4?'
p4088
tp4089
baa(lp4090
g859
ag4
(g8
S'\xea\xcc<)\xaa?\xf2?'
p4091
tp4092
Rp4093
ag14
(g15
(I0
tp4094
g17
tp4095
Rp4096
(I1
(tg8
I00
S'\x0c\xf6f\xf5\xd2/\xf6?'
p4097
tp4098
bag4
(g8
S'c\x02\xe0j\xcc\x93\xf2?'
p4099
tp4100
Rp4101
ag14
(g15
(I0
tp4102
g17
tp4103
Rp4104
(I1
(tg8
I00
S'X\x17\xfdi\x1cr\xf4?'
p4105
tp4106
baa(lp4107
g877
ag4
(g8
S'\x05x \xb9 \xad\xf2?'
p4108
tp4109
Rp4110
ag14
(g15
(I0
tp4111
g17
tp4112
Rp4113
(I1
(tg8
I00
S'`\x8c\xdau\x9ds\xf6?'
p4114
tp4115
bag4
(g8
S'\xbaud\xc0\x92\xd2\xf2?'
p4116
tp4117
Rp4118
ag14
(g15
(I0
tp4119
g17
tp4120
Rp4121
(I1
(tg8
I00
S'\x9e\xf9R\xe4\xc9t\xf4?'
p4122
tp4123
baa(lp4124
g895
ag4
(g8
S'b\xf9o\xc9Z\x8d\xf2?'
p4125
tp4126
Rp4127
ag14
(g15
(I0
tp4128
g17
tp4129
Rp4130
(I1
(tg8
I00
S'\x96\x95i\x1b\x9f\x82\xf6?'
p4131
tp4132
bag4
(g8
S'\r\x8e\t\xc8\xef\xd6\xf2?'
p4133
tp4134
Rp4135
ag14
(g15
(I0
tp4136
g17
tp4137
Rp4138
(I1
(tg8
I00
S'\xb3hvq\x82\xd2\xf4?'
p4139
tp4140
baa(lp4141
g913
ag4
(g8
S'\xbe\x8cZ\xf4\xbd;\xf2?'
p4142
tp4143
Rp4144
ag14
(g15
(I0
tp4145
g17
tp4146
Rp4147
(I1
(tg8
I00
S'\x18\xc4T\xa1NT\xf2?'
p4148
tp4149
bag4
(g8
S'\x9c,$\x01\xb8\xa8\xf2?'
p4150
tp4151
Rp4152
ag14
(g15
(I0
tp4153
g17
tp4154
Rp4155
(I1
(tg8
I00
S'J\xdd\xb96J\xc4\xf0?'
p4156
tp4157
baa(lp4158
g931
ag4
(g8
S'?)\x15\xd0M\xfd\xf1?'
p4159
tp4160
Rp4161
ag14
(g15
(I0
tp4162
g17
tp4163
Rp4164
(I1
(tg8
I00
S'Ez2\x02(2\xf2?'
p4165
tp4166
bag4
(g8
S'\xeaDg\x82\xcd\x8b\xf2?'
p4167
tp4168
Rp4169
ag14
(g15
(I0
tp4170
g17
tp4171
Rp4172
(I1
(tg8
I00
S'\xbd\x8a\xc4\xb0\xbb\xfc\xf0?'
p4173
tp4174
baa(lp4175
g949
ag4
(g8
S'\x82y\x99\x06\xd1\x16\xf2?'
p4176
tp4177
Rp4178
ag14
(g15
(I0
tp4179
g17
tp4180
Rp4181
(I1
(tg8
I00
S'\x82\xdf\xb1\xe5\xbb5\xf2?'
p4182
tp4183
bag4
(g8
S'>DB\x13"\xf8\xf2?'
p4184
tp4185
Rp4186
ag14
(g15
(I0
tp4187
g17
tp4188
Rp4189
(I1
(tg8
I00
S'\x96\xc3\x94\xe8\xa8\x13\xf1?'
p4190
tp4191
baa(lp4192
g967
ag4
(g8
S'x\xe5\xe06$\x8d\xf1?'
p4193
tp4194
Rp4195
ag14
(g15
(I0
tp4196
g17
tp4197
Rp4198
(I1
(tg8
I00
S'C\xdf\xef\xc9\xe3\x85\xf1?'
p4199
tp4200
bag4
(g8
S'\xc5=\xbc\x12Z@\xf2?'
p4201
tp4202
Rp4203
ag14
(g15
(I0
tp4204
g17
tp4205
Rp4206
(I1
(tg8
I00
S'\x06\x88\xce\xaf~n\xf0?'
p4207
tp4208
baa(lp4209
g985
ag4
(g8
S'\x0c\x10\xdd\x12c\xe2\xf5?'
p4210
tp4211
Rp4212
ag14
(g15
(I0
tp4213
g17
tp4214
Rp4215
(I1
(tg8
I00
S'B\xac\xe4\xc4\x10\x1f\x05@'
p4216
tp4217
bag4
(g8
S'\xf5\x00\x886\xceX\xf5?'
p4218
tp4219
Rp4220
ag14
(g15
(I0
tp4221
g17
tp4222
Rp4223
(I1
(tg8
I00
S'*|\xb5\xde\xbe{\x03@'
p4224
tp4225
baa(lp4226
g1003
ag4
(g8
S'\x1d\xae\xbf\x9et\xda\xf5?'
p4227
tp4228
Rp4229
ag14
(g15
(I0
tp4230
g17
tp4231
Rp4232
(I1
(tg8
I00
S'\xd0\x18\xc6\xb9k$\x05@'
p4233
tp4234
bag4
(g8
S'\xa7\x96 \xb4\x95=\xf5?'
p4235
tp4236
Rp4237
ag14
(g15
(I0
tp4238
g17
tp4239
Rp4240
(I1
(tg8
I00
S't\x83\xa5A1w\x03@'
p4241
tp4242
baa(lp4243
g1021
ag4
(g8
S'b\xbef\xd7\xf0\xd0\xf5?'
p4244
tp4245
Rp4246
ag14
(g15
(I0
tp4247
g17
tp4248
Rp4249
(I1
(tg8
I00
S'\x0c\xfd>Y\xc0\x12\x05@'
p4250
tp4251
bag4
(g8
S"'\x82J*LL\xf5?"
p4252
tp4253
Rp4254
ag14
(g15
(I0
tp4255
g17
tp4256
Rp4257
(I1
(tg8
I00
S'\x8a\xbb\x8e\x9f)l\x03@'
p4258
tp4259
baa(lp4260
g1039
ag4
(g8
S'\xa1\x0f\xfd\x11|\xa1\xf1?'
p4261
tp4262
Rp4263
ag14
(g15
(I0
tp4264
g17
tp4265
Rp4266
(I1
(tg8
I00
S'\xf4\xea\x92*\xf6\x83\xf5?'
p4267
tp4268
bag4
(g8
S'TMyE\x82w\xf2?'
p4269
tp4270
Rp4271
ag14
(g15
(I0
tp4272
g17
tp4273
Rp4274
(I1
(tg8
I00
S'2\xc8\xabs\x87\xcd\xf4?'
p4275
tp4276
baa(lp4277
g1057
ag4
(g8
S'c\x11\xcby_\x9c\xf1?'
p4278
tp4279
Rp4280
ag14
(g15
(I0
tp4281
g17
tp4282
Rp4283
(I1
(tg8
I00
S'H\xcbPw\x14z\xf5?'
p4284
tp4285
bag4
(g8
S'\xb3\x18W\xae@/\xf2?'
p4286
tp4287
Rp4288
ag14
(g15
(I0
tp4289
g17
tp4290
Rp4291
(I1
(tg8
I00
S'\x19\xc3L\xd0\xa3s\xf4?'
p4292
tp4293
baa(lp4294
g1075
ag4
(g8
S'\xebUs\x1a\x92\xa4\xf1?'
p4295
tp4296
Rp4297
ag14
(g15
(I0
tp4298
g17
tp4299
Rp4300
(I1
(tg8
I00
S'\xfan!&\xe5\x89\xf5?'
p4301
tp4302
bag4
(g8
S'\x9f\xa6Q\xfeO5\xf2?'
p4303
tp4304
Rp4305
ag14
(g15
(I0
tp4306
g17
tp4307
Rp4308
(I1
(tg8
I00
S'\xf7\x8a\xfc\xee9\x1b\xf4?'
p4309
tp4310
baa(lp4311
g1093
ag4
(g8
S'J\xe2\xb9\xe6\xfd\xed\xf0?'
p4312
tp4313
Rp4314
ag14
(g15
(I0
tp4315
g17
tp4316
Rp4317
(I1
(tg8
I00
S'\x10r\x94i^@\xf0?'
p4318
tp4319
bag4
(g8
S'F\xc5.\xf1\x08\xe3\xf2?'
p4320
tp4321
Rp4322
ag14
(g15
(I0
tp4323
g17
tp4324
Rp4325
(I1
(tg8
I00
S'\xfa\x8d\x7fk\x12\x19\xf1?'
p4326
tp4327
baa(lp4328
g1111
ag4
(g8
S'NS\x08\xfb4\xd8\xf0?'
p4329
tp4330
Rp4331
ag14
(g15
(I0
tp4332
g17
tp4333
Rp4334
(I1
(tg8
I00
S'[\x14\xb1\x9a\x82U\xf0?'
p4335
tp4336
bag4
(g8
S']\xa36\xad\xcd}\xf2?'
p4337
tp4338
Rp4339
ag14
(g15
(I0
tp4340
g17
tp4341
Rp4342
(I1
(tg8
I00
S'\x9cc\xd5\xa2B-\xf1?'
p4343
tp4344
baa(lp4345
g1129
ag4
(g8
S'\x8d\xc3\x1f\x93=\xda\xf0?'
p4346
tp4347
Rp4348
ag14
(g15
(I0
tp4349
g17
tp4350
Rp4351
(I1
(tg8
I00
S'\x85\xdd\xe2\x9e\x81r\xef?'
p4352
tp4353
bag4
(g8
S'!\xef\x93\x0bde\xf2?'
p4354
tp4355
Rp4356
ag14
(g15
(I0
tp4357
g17
tp4358
Rp4359
(I1
(tg8
I00
S'&Cy\x95\x13\xc9\xf0?'
p4360
tp4361
baaa(lp4362
(lp4363
g3
ag4
(g8
S'\xf0\x9b\x19\xc6\xad5\xf8?'
p4364
tp4365
Rp4366
ag14
(g15
(I0
tp4367
g17
tp4368
Rp4369
(I1
(tg8
I00
S'\nk\xf9\xf5\x8c\x02\x06@'
p4370
tp4371
bag4
(g8
S'+\xab\x10\x19\x879\xf8?'
p4372
tp4373
Rp4374
ag14
(g15
(I0
tp4375
g17
tp4376
Rp4377
(I1
(tg8
I00
S'\xd0}$\xe6R\x87\x06@'
p4378
tp4379
baa(lp4380
g31
ag4
(g8
S'\xbe\x18_\xa82\x15\xf8?'
p4381
tp4382
Rp4383
ag14
(g15
(I0
tp4384
g17
tp4385
Rp4386
(I1
(tg8
I00
S'\x0e\xbe\xe2\xa0T\xb2\x05@'
p4387
tp4388
bag4
(g8
S':\n\xc0 q*\xf8?'
p4389
tp4390
Rp4391
ag14
(g15
(I0
tp4392
g17
tp4393
Rp4394
(I1
(tg8
I00
S'EE2spU\x06@'
p4395
tp4396
baa(lp4397
g49
ag4
(g8
S'vUA<I\x0e\xf8?'
p4398
tp4399
Rp4400
ag14
(g15
(I0
tp4401
g17
tp4402
Rp4403
(I1
(tg8
I00
S'B\x00P\xf9\xf1\xd4\x05@'
p4404
tp4405
bag4
(g8
S'>\xb6\x17 \x83\x06\xf8?'
p4406
tp4407
Rp4408
ag14
(g15
(I0
tp4409
g17
tp4410
Rp4411
(I1
(tg8
I00
S'\x17cp\xef\x14Z\x06@'
p4412
tp4413
baa(lp4414
g67
ag4
(g8
S'!?f[\xba\x17\xf8?'
p4415
tp4416
Rp4417
ag14
(g15
(I0
tp4418
g17
tp4419
Rp4420
(I1
(tg8
I00
S'\xb8\x91u%\xf5\xd2\x05@'
p4421
tp4422
bag4
(g8
S'YJ\xa3\xb4\xeb)\xf8?'
p4423
tp4424
Rp4425
ag14
(g15
(I0
tp4426
g17
tp4427
Rp4428
(I1
(tg8
I00
S'l\xa8\xc3r\x9f\\\x06@'
p4429
tp4430
baa(lp4431
g85
ag4
(g8
S'2\x12\x85I\x8b\xbe\xf5?'
p4432
tp4433
Rp4434
ag14
(g15
(I0
tp4435
g17
tp4436
Rp4437
(I1
(tg8
I00
S'\xe1\xe0\x1bj{.\xfb?'
p4438
tp4439
bag4
(g8
S'0V\xaf\xfb\xe2\x8a\xf5?'
p4440
tp4441
Rp4442
ag14
(g15
(I0
tp4443
g17
tp4444
Rp4445
(I1
(tg8
I00
S'\x02\xf1\xe7\x13\xb4"\xfc?'
p4446
tp4447
baa(lp4448
g103
ag4
(g8
S'y\xbb\x00{W\xcb\xf5?'
p4449
tp4450
Rp4451
ag14
(g15
(I0
tp4452
g17
tp4453
Rp4454
(I1
(tg8
I00
S'V{\x85\xfd9H\xfb?'
p4455
tp4456
bag4
(g8
S'\x91\xf2\x9b\xf7\xde\xc1\xf5?'
p4457
tp4458
Rp4459
ag14
(g15
(I0
tp4460
g17
tp4461
Rp4462
(I1
(tg8
I00
S'\x7f N\x0c%o\xfc?'
p4463
tp4464
baa(lp4465
g121
ag4
(g8
S'\xe7-W@\xfe\xac\xf5?'
p4466
tp4467
Rp4468
ag14
(g15
(I0
tp4469
g17
tp4470
Rp4471
(I1
(tg8
I00
S'4\xaa\xef\xe09\r\xfb?'
p4472
tp4473
bag4
(g8
S'\x7f\x98\xb8W\xb4\xed\xf5?'
p4474
tp4475
Rp4476
ag14
(g15
(I0
tp4477
g17
tp4478
Rp4479
(I1
(tg8
I00
S'&\xf4\x9e\x0f\x87\xdc\xfc?'
p4480
tp4481
baa(lp4482
g139
ag4
(g8
S'\x80\x9d]d\xe9\xb9\xf5?'
p4483
tp4484
Rp4485
ag14
(g15
(I0
tp4486
g17
tp4487
Rp4488
(I1
(tg8
I00
S'\x1ao`\xcd\xce\x16\xfb?'
p4489
tp4490
bag4
(g8
S'\n\xb7\xd3q\x85\x9e\xf5?'
p4491
tp4492
Rp4493
ag14
(g15
(I0
tp4494
g17
tp4495
Rp4496
(I1
(tg8
I00
S'\xfa[\x07J\xf6d\xfc?'
p4497
tp4498
baa(lp4499
g157
ag4
(g8
S'y\x9a\xc9d\xb0&\xf5?'
p4500
tp4501
Rp4502
ag14
(g15
(I0
tp4503
g17
tp4504
Rp4505
(I1
(tg8
I00
S'\xfd\xbb\\w\ro\xf6?'
p4506
tp4507
bag4
(g8
S'\x9cT\r\x9d\xa3\xf8\xf4?'
p4508
tp4509
Rp4510
ag14
(g15
(I0
tp4511
g17
tp4512
Rp4513
(I1
(tg8
I00
S'X\xf1N\xdf\x82e\xf7?'
p4514
tp4515
baa(lp4516
g175
ag4
(g8
S'\x1e\t\xb2\x80\xa2"\xf5?'
p4517
tp4518
Rp4519
ag14
(g15
(I0
tp4520
g17
tp4521
Rp4522
(I1
(tg8
I00
S'w:b\xca.q\xf6?'
p4523
tp4524
bag4
(g8
S'5\xf0\xa7\xac\r4\xf5?'
p4525
tp4526
Rp4527
ag14
(g15
(I0
tp4528
g17
tp4529
Rp4530
(I1
(tg8
I00
S'qv\xf7\xa9\xdb*\xf8?'
p4531
tp4532
baa(lp4533
g193
ag4
(g8
S'\xb3_\x0b\xeb\xf9r\xf5?'
p4534
tp4535
Rp4536
ag14
(g15
(I0
tp4537
g17
tp4538
Rp4539
(I1
(tg8
I00
S'f\xf4\xe6\x80\xaa\xe5\xf6?'
p4540
tp4541
bag4
(g8
S'-n\xd0\xeb\x04w\xf5?'
p4542
tp4543
Rp4544
ag14
(g15
(I0
tp4545
g17
tp4546
Rp4547
(I1
(tg8
I00
S'G\x9bg\x02\xe7;\xf8?'
p4548
tp4549
baa(lp4550
g211
ag4
(g8
S'\x86)\x8a|\x05\xda\xf4?'
p4551
tp4552
Rp4553
ag14
(g15
(I0
tp4554
g17
tp4555
Rp4556
(I1
(tg8
I00
S'\xb7\x11\xd0\xdf\x06\xfe\xf5?'
p4557
tp4558
bag4
(g8
S'\x8e\xaf\xd8\x83\xb5\xd2\xf4?'
p4559
tp4560
Rp4561
ag14
(g15
(I0
tp4562
g17
tp4563
Rp4564
(I1
(tg8
I00
S'\x0ba|EbR\xf7?'
p4565
tp4566
baa(lp4567
g229
ag4
(g8
S'\x98Z\x82\xeaLZ\xf7?'
p4568
tp4569
Rp4570
ag14
(g15
(I0
tp4571
g17
tp4572
Rp4573
(I1
(tg8
I00
S'\x9b\xfc\xeb\xbd\xc3 \x05@'
p4574
tp4575
bag4
(g8
S'\xce\x83\x86\x8fZw\xf7?'
p4576
tp4577
Rp4578
ag14
(g15
(I0
tp4579
g17
tp4580
Rp4581
(I1
(tg8
I00
S'\xc2\xbe\xdbH\x1c\xb6\x05@'
p4582
tp4583
baa(lp4584
g247
ag4
(g8
S'\x073\x03\xda\xc3\x10\xf7?'
p4585
tp4586
Rp4587
ag14
(g15
(I0
tp4588
g17
tp4589
Rp4590
(I1
(tg8
I00
S'\xf6h\xfe/\xc3\x1e\x05@'
p4591
tp4592
bag4
(g8
S'0\xf6\xd2\x91U\t\xf7?'
p4593
tp4594
Rp4595
ag14
(g15
(I0
tp4596
g17
tp4597
Rp4598
(I1
(tg8
I00
S'\x82\xb7\x04\xd0\xce\xba\x05@'
p4599
tp4600
baa(lp4601
g265
ag4
(g8
S'B\xa3\xdb\xe7\x17\xd0\xf6?'
p4602
tp4603
Rp4604
ag14
(g15
(I0
tp4605
g17
tp4606
Rp4607
(I1
(tg8
I00
S'\xc6\xf0I\xbb/\x01\x05@'
p4608
tp4609
bag4
(g8
S'\xcdZ\xe2\xe3+\xc8\xf6?'
p4610
tp4611
Rp4612
ag14
(g15
(I0
tp4613
g17
tp4614
Rp4615
(I1
(tg8
I00
S'u\xbe\x13\x1c\xf6\xa4\x05@'
p4616
tp4617
baa(lp4618
g283
ag4
(g8
S"4\xd0\xe2\x8e'\x07\xf7?"
p4619
tp4620
Rp4621
ag14
(g15
(I0
tp4622
g17
tp4623
Rp4624
(I1
(tg8
I00
S'\\a\xd9\xd8\xb2\x06\x05@'
p4625
tp4626
bag4
(g8
S'\xb0\x02\t\xb8o\x16\xf7?'
p4627
tp4628
Rp4629
ag14
(g15
(I0
tp4630
g17
tp4631
Rp4632
(I1
(tg8
I00
S'r\xcf\xe8QH\xa5\x05@'
p4633
tp4634
baa(lp4635
g301
ag4
(g8
S'\x14g\xc9\xc8\xd9\xd4\xf4?'
p4636
tp4637
Rp4638
ag14
(g15
(I0
tp4639
g17
tp4640
Rp4641
(I1
(tg8
I00
S'\x92XK\xb1\x1b\x00\xf9?'
p4642
tp4643
bag4
(g8
S';\x13\x19U\x86\xce\xf4?'
p4644
tp4645
Rp4646
ag14
(g15
(I0
tp4647
g17
tp4648
Rp4649
(I1
(tg8
I00
S'V2x\x95\xafw\xfa?'
p4650
tp4651
baa(lp4652
g319
ag4
(g8
S'\xd8\xf74c\x84b\xf5?'
p4653
tp4654
Rp4655
ag14
(g15
(I0
tp4656
g17
tp4657
Rp4658
(I1
(tg8
I00
S'\x1f6\x0b\x1d\x89\xc0\xf9?'
p4659
tp4660
bag4
(g8
S'\x06\xca\xf8\xc8\xc4\x1b\xf5?'
p4661
tp4662
Rp4663
ag14
(g15
(I0
tp4664
g17
tp4665
Rp4666
(I1
(tg8
I00
S'D\xb7\x88\xb3\xae\xc2\xfa?'
p4667
tp4668
baa(lp4669
g337
ag4
(g8
S'T\xa7\xc4y\xef\xe6\xf4?'
p4670
tp4671
Rp4672
ag14
(g15
(I0
tp4673
g17
tp4674
Rp4675
(I1
(tg8
I00
S'Kzw\xdaI"\xf9?'
p4676
tp4677
bag4
(g8
S'\rl\x1a\x19r\xe4\xf4?'
p4678
tp4679
Rp4680
ag14
(g15
(I0
tp4681
g17
tp4682
Rp4683
(I1
(tg8
I00
S'\r\x19Ut\x9e\xeb\xfa?'
p4684
tp4685
baa(lp4686
g355
ag4
(g8
S'\n\x92E\xfapS\xf5?'
p4687
tp4688
Rp4689
ag14
(g15
(I0
tp4690
g17
tp4691
Rp4692
(I1
(tg8
I00
S'=\xab\xc1\x9aT\x9c\xf9?'
p4693
tp4694
bag4
(g8
S'\xc2\xfd\xef*:n\xf5?'
p4695
tp4696
Rp4697
ag14
(g15
(I0
tp4698
g17
tp4699
Rp4700
(I1
(tg8
I00
S'k*\xa0\xba\xe6%\xfb?'
p4701
tp4702
baa(lp4703
g373
ag4
(g8
S'\xbcv&\x9a\x95\x9e\xf4?'
p4704
tp4705
Rp4706
ag14
(g15
(I0
tp4707
g17
tp4708
Rp4709
(I1
(tg8
I00
S'\xe8$\xd9(X\xb6\xf5?'
p4710
tp4711
bag4
(g8
S'\x8e\x84\xffO#e\xf4?'
p4712
tp4713
Rp4714
ag14
(g15
(I0
tp4715
g17
tp4716
Rp4717
(I1
(tg8
I00
S'\xcb.\xd4\xa2\x8a\x8a\xf6?'
p4718
tp4719
baa(lp4720
g391
ag4
(g8
S'\xb2A\xf3*V\xdc\xf4?'
p4721
tp4722
Rp4723
ag14
(g15
(I0
tp4724
g17
tp4725
Rp4726
(I1
(tg8
I00
S'\x00t\x01\x94q\xd7\xf5?'
p4727
tp4728
bag4
(g8
S'\\\x10\xd7\xd6\xe8\xbb\xf4?'
p4729
tp4730
Rp4731
ag14
(g15
(I0
tp4732
g17
tp4733
Rp4734
(I1
(tg8
I00
S'F~\x89\xc3x7\xf7?'
p4735
tp4736
baa(lp4737
g409
ag4
(g8
S'oD6d\xdf\xfe\xf4?'
p4738
tp4739
Rp4740
ag14
(g15
(I0
tp4741
g17
tp4742
Rp4743
(I1
(tg8
I00
S'\xf45\n\xa0E\xe8\xf5?'
p4744
tp4745
bag4
(g8
S'?\xde\xde\xbd\xe8\x9a\xf4?'
p4746
tp4747
Rp4748
ag14
(g15
(I0
tp4749
g17
tp4750
Rp4751
(I1
(tg8
I00
S'g"\x05\x9b\xd6\xf3\xf6?'
p4752
tp4753
baa(lp4754
g427
ag4
(g8
S'S\xa0\xe5\xa7i>\xf5?'
p4755
tp4756
Rp4757
ag14
(g15
(I0
tp4758
g17
tp4759
Rp4760
(I1
(tg8
I00
S'\\Q\xb7K\xceJ\xf6?'
p4761
tp4762
bag4
(g8
S'0\xef\x9fHj-\xf5?'
p4763
tp4764
Rp4765
ag14
(g15
(I0
tp4766
g17
tp4767
Rp4768
(I1
(tg8
I00
S'\x17\xf5:\xa5\xce\xd7\xf7?'
p4769
tp4770
baa(lp4771
g445
ag4
(g8
S'\xa8=\x89\xd1\xfe\n\xf6?'
p4772
tp4773
Rp4774
ag14
(g15
(I0
tp4775
g17
tp4776
Rp4777
(I1
(tg8
I00
S'\xbe<7n\xe1-\x04@'
p4778
tp4779
bag4
(g8
S'aB\x1d\xa0\xacV\xf6?'
p4780
tp4781
Rp4782
ag14
(g15
(I0
tp4783
g17
tp4784
Rp4785
(I1
(tg8
I00
S'\xb2\xb0]\x01m\x1c\x05@'
p4786
tp4787
baa(lp4788
g463
ag4
(g8
S'\x18\n\xd1\x8f\x87\x0b\xf6?'
p4789
tp4790
Rp4791
ag14
(g15
(I0
tp4792
g17
tp4793
Rp4794
(I1
(tg8
I00
S'f\x82\xe1\xb9\x1d:\x04@'
p4795
tp4796
bag4
(g8
S'%?\xc6\xdb\xd5?\xf6?'
p4797
tp4798
Rp4799
ag14
(g15
(I0
tp4800
g17
tp4801
Rp4802
(I1
(tg8
I00
S'\x06\xd7\x940\x08"\x05@'
p4803
tp4804
baa(lp4805
g481
ag4
(g8
S'\xf7\xba\x9f\xa8\x9eZ\xf2?'
p4806
tp4807
Rp4808
ag14
(g15
(I0
tp4809
g17
tp4810
Rp4811
(I1
(tg8
I00
S':\xec\xb8\xa8N\x10\xf6?'
p4812
tp4813
bag4
(g8
S'\x01\xc8Eey\x92\xf2?'
p4814
tp4815
Rp4816
ag14
(g15
(I0
tp4817
g17
tp4818
Rp4819
(I1
(tg8
I00
S'\x05\x88\xaa\xc5/;\xf8?'
p4820
tp4821
baa(lp4822
g499
ag4
(g8
S'\x98\xd6L\xcak^\xf2?'
p4823
tp4824
Rp4825
ag14
(g15
(I0
tp4826
g17
tp4827
Rp4828
(I1
(tg8
I00
S'\x8b&\xc6\x94b7\xf6?'
p4829
tp4830
bag4
(g8
S' m%\xe4\x11r\xf2?'
p4831
tp4832
Rp4833
ag14
(g15
(I0
tp4834
g17
tp4835
Rp4836
(I1
(tg8
I00
S'\xc4\x07\x8dM\x02C\xf8?'
p4837
tp4838
baa(lp4839
g517
ag4
(g8
S'\xb1O\x0e\x0e\\\xd9\xf1?'
p4840
tp4841
Rp4842
ag14
(g15
(I0
tp4843
g17
tp4844
Rp4845
(I1
(tg8
I00
S'\xbb\x12\x14\x1c\xe5\x94\xf1?'
p4846
tp4847
bag4
(g8
S'_\x9c\x97@l\x0b\xf2?'
p4848
tp4849
Rp4850
ag14
(g15
(I0
tp4851
g17
tp4852
Rp4853
(I1
(tg8
I00
S"\x0b\xa0'p\x94X\xf3?"
p4854
tp4855
baa(lp4856
g535
ag4
(g8
S'\x90\xcbZ\xc2\x90\xa1\xf1?'
p4857
tp4858
Rp4859
ag14
(g15
(I0
tp4860
g17
tp4861
Rp4862
(I1
(tg8
I00
S'\xf1\x0f!#\x0fG\xf1?'
p4863
tp4864
bag4
(g8
S'\xc5?m\x19\x9dU\xf2?'
p4865
tp4866
Rp4867
ag14
(g15
(I0
tp4868
g17
tp4869
Rp4870
(I1
(tg8
I00
S'\xcf\x11\xd9r+=\xf4?'
p4871
tp4872
baa(lp4873
g553
ag4
(g8
S't2\x10E\x16\x8c\xf6?'
p4874
tp4875
Rp4876
ag14
(g15
(I0
tp4877
g17
tp4878
Rp4879
(I1
(tg8
I00
S'\xa22 u\x9fi\x05@'
p4880
tp4881
bag4
(g8
S'\x8eOQ\x82\x8ct\xf6?'
p4882
tp4883
Rp4884
ag14
(g15
(I0
tp4885
g17
tp4886
Rp4887
(I1
(tg8
I00
S'tM!\xf8\x82\x03\x06@'
p4888
tp4889
baa(lp4890
g571
ag4
(g8
S'\x80\xbb?{|`\xf6?'
p4891
tp4892
Rp4893
ag14
(g15
(I0
tp4894
g17
tp4895
Rp4896
(I1
(tg8
I00
S'\xfd\xca\x14\x05\xd4%\x05@'
p4897
tp4898
bag4
(g8
S'\xea1\xf4T\xed~\xf6?'
p4899
tp4900
Rp4901
ag14
(g15
(I0
tp4902
g17
tp4903
Rp4904
(I1
(tg8
I00
S'\xc4\xf4\x1d\xd5k\xf2\x05@'
p4905
tp4906
baa(lp4907
g589
ag4
(g8
S'-\xd2\x9a\x88\x89]\xf6?'
p4908
tp4909
Rp4910
ag14
(g15
(I0
tp4911
g17
tp4912
Rp4913
(I1
(tg8
I00
S'\x19\xb6n:\x81A\x05@'
p4914
tp4915
bag4
(g8
S'^d\xf2,_d\xf6?'
p4916
tp4917
Rp4918
ag14
(g15
(I0
tp4919
g17
tp4920
Rp4921
(I1
(tg8
I00
S"0']\xef\xbb\xf4\x05@"
p4922
tp4923
baa(lp4924
g607
ag4
(g8
S'\xbeJ H\xdc\x99\xf6?'
p4925
tp4926
Rp4927
ag14
(g15
(I0
tp4928
g17
tp4929
Rp4930
(I1
(tg8
I00
S'\xa6\xb4\x99aH\x95\x05@'
p4931
tp4932
bag4
(g8
S'\xc3@\x83J#\xa4\xf6?'
p4933
tp4934
Rp4935
ag14
(g15
(I0
tp4936
g17
tp4937
Rp4938
(I1
(tg8
I00
S'Ac\xf9?;J\x06@'
p4939
tp4940
baa(lp4941
g625
ag4
(g8
S'pQ\x9b\xa2\xbb8\xf4?'
p4942
tp4943
Rp4944
ag14
(g15
(I0
tp4945
g17
tp4946
Rp4947
(I1
(tg8
I00
S'@\xe9\x0bmN\xd2\xf7?'
p4948
tp4949
bag4
(g8
S'B\xf6\xc0\xa1\x8f\x1a\xf4?'
p4950
tp4951
Rp4952
ag14
(g15
(I0
tp4953
g17
tp4954
Rp4955
(I1
(tg8
I00
S'\xda\x9f\xfci_U\xf9?'
p4956
tp4957
baa(lp4958
g643
ag4
(g8
S'KQc\xdf\x95r\xf4?'
p4959
tp4960
Rp4961
ag14
(g15
(I0
tp4962
g17
tp4963
Rp4964
(I1
(tg8
I00
S'\xd8\xb0w>\xc4\x05\xf8?'
p4965
tp4966
bag4
(g8
S'{\xbbo\x14\x18N\xf4?'
p4967
tp4968
Rp4969
ag14
(g15
(I0
tp4970
g17
tp4971
Rp4972
(I1
(tg8
I00
S'V\xd6\xa0\xc5 J\xf9?'
p4973
tp4974
baa(lp4975
g661
ag4
(g8
S'\xc2m\xbf\xf8\xe7\x8f\xf4?'
p4976
tp4977
Rp4978
ag14
(g15
(I0
tp4979
g17
tp4980
Rp4981
(I1
(tg8
I00
S'\xc2\xbaPL\xb3:\xf8?'
p4982
tp4983
bag4
(g8
S'F\xdb\x0b\x06H\x85\xf4?'
p4984
tp4985
Rp4986
ag14
(g15
(I0
tp4987
g17
tp4988
Rp4989
(I1
(tg8
I00
S'\xe1$<kN1\xfa?'
p4990
tp4991
baa(lp4992
g679
ag4
(g8
S'\xd5\x10\xc6\x1f\xc5\x92\xf4?'
p4993
tp4994
Rp4995
ag14
(g15
(I0
tp4996
g17
tp4997
Rp4998
(I1
(tg8
I00
S'\xc2[\xbb\xec\xb4@\xf8?'
p4999
tp5000
bag4
(g8
S'Vs\x16LE)\xf4?'
p5001
tp5002
Rp5003
ag14
(g15
(I0
tp5004
g17
tp5005
Rp5006
(I1
(tg8
I00
S'\xc9\x01}\xa9\xcc\x0e\xf9?'
p5007
tp5008
baa(lp5009
g697
ag4
(g8
S'\xb8u\xf6\xd0\xcb\x0e\xf4?'
p5010
tp5011
Rp5012
ag14
(g15
(I0
tp5013
g17
tp5014
Rp5015
(I1
(tg8
I00
S'\x10\xf3\xb7\xa1$\xa3\xf4?'
p5016
tp5017
bag4
(g8
S'\xed\xd1}+\xaf\xf3\xf3?'
p5018
tp5019
Rp5020
ag14
(g15
(I0
tp5021
g17
tp5022
Rp5023
(I1
(tg8
I00
S'?[\x89\\\x8c\xc1\xf6?'
p5024
tp5025
baa(lp5026
g715
ag4
(g8
S'88zH\xe3\x9a\xf4?'
p5027
tp5028
Rp5029
ag14
(g15
(I0
tp5030
g17
tp5031
Rp5032
(I1
(tg8
I00
S'\xd3\xb2\x8b\xce\xe0\x96\xf5?'
p5033
tp5034
bag4
(g8
S'\xc7\xdb\xfb\t\xf9\x94\xf4?'
p5035
tp5036
Rp5037
ag14
(g15
(I0
tp5038
g17
tp5039
Rp5040
(I1
(tg8
I00
S'\x92D\xfb@s\x03\xf7?'
p5041
tp5042
baa(lp5043
g733
ag4
(g8
S'\x95\x89_\r\x89\x7f\xf4?'
p5044
tp5045
Rp5046
ag14
(g15
(I0
tp5047
g17
tp5048
Rp5049
(I1
(tg8
I00
S'\x8c\xd8\x97:\xd5\x9d\xf5?'
p5050
tp5051
bag4
(g8
S'j\x8fQ\x8f\x9dY\xf4?'
p5052
tp5053
Rp5054
ag14
(g15
(I0
tp5055
g17
tp5056
Rp5057
(I1
(tg8
I00
S'&,\x012\xe8\xaf\xf6?'
p5058
tp5059
baa(lp5060
g751
ag4
(g8
S'\xc6\xebt\xfc[1\xf4?'
p5061
tp5062
Rp5063
ag14
(g15
(I0
tp5064
g17
tp5065
Rp5066
(I1
(tg8
I00
S'Uz3\xe5\xdd\x16\xf5?'
p5067
tp5068
bag4
(g8
S'\xc4}\x8567K\xf4?'
p5069
tp5070
Rp5071
ag14
(g15
(I0
tp5072
g17
tp5073
Rp5074
(I1
(tg8
I00
S'ty\xf1j\xa2\xe2\xf6?'
p5075
tp5076
baa(lp5077
g769
ag4
(g8
S'\x11\xa7\xe4\xb3\xe8\x99\xf5?'
p5078
tp5079
Rp5080
ag14
(g15
(I0
tp5081
g17
tp5082
Rp5083
(I1
(tg8
I00
S"\xd9\xf1\x82'`{\x04@"
p5084
tp5085
bag4
(g8
S'}\x94;H\xd3\xdb\xf5?'
p5086
tp5087
Rp5088
ag14
(g15
(I0
tp5089
g17
tp5090
Rp5091
(I1
(tg8
I00
S'\xeci3\x8c\xeai\x05@'
p5092
tp5093
baa(lp5094
g787
ag4
(g8
S'9\xf6\x7f\xdf\x06\xb4\xf5?'
p5095
tp5096
Rp5097
ag14
(g15
(I0
tp5098
g17
tp5099
Rp5100
(I1
(tg8
I00
S'\xe0\x19J-\x82\xad\x04@'
p5101
tp5102
bag4
(g8
S'K\x06v2\xd8\xe5\xf5?'
p5103
tp5104
Rp5105
ag14
(g15
(I0
tp5106
g17
tp5107
Rp5108
(I1
(tg8
I00
S'\xf4\xfdV\x84\xf0\x8f\x05@'
p5109
tp5110
baa(lp5111
g805
ag4
(g8
S'\xb4\xfc\xdf\xc6`\xb3\xf5?'
p5112
tp5113
Rp5114
ag14
(g15
(I0
tp5115
g17
tp5116
Rp5117
(I1
(tg8
I00
S'\xaa\x00]\xa3\x9e\xb8\x04@'
p5118
tp5119
bag4
(g8
S'3\x97\xdf\x18\xd9\xda\xf5?'
p5120
tp5121
Rp5122
ag14
(g15
(I0
tp5123
g17
tp5124
Rp5125
(I1
(tg8
I00
S'\x10%q\xf7\xa9\x92\x05@'
p5126
tp5127
baa(lp5128
g823
ag4
(g8
S'\x08\x9eCX\xa3\xa3\xf5?'
p5129
tp5130
Rp5131
ag14
(g15
(I0
tp5132
g17
tp5133
Rp5134
(I1
(tg8
I00
S'H\xa8\x05\x19\xf0\xc1\x04@'
p5135
tp5136
bag4
(g8
S'@!7O\x93\xc7\xf5?'
p5137
tp5138
Rp5139
ag14
(g15
(I0
tp5140
g17
tp5141
Rp5142
(I1
(tg8
I00
S'\xc7B\x1f.-\x9d\x05@'
p5143
tp5144
baa(lp5145
g841
ag4
(g8
S'\xa7Z/\x15\x9dU\xf2?'
p5146
tp5147
Rp5148
ag14
(g15
(I0
tp5149
g17
tp5150
Rp5151
(I1
(tg8
I00
S'\x12W\x04\xc1\xd2\x86\xf5?'
p5152
tp5153
bag4
(g8
S';\xd4\xc4\xd0\xa4\xb0\xf2?'
p5154
tp5155
Rp5156
ag14
(g15
(I0
tp5157
g17
tp5158
Rp5159
(I1
(tg8
I00
S'\xd1\xe2uf\xb7^\xf8?'
p5160
tp5161
baa(lp5162
g859
ag4
(g8
S'$<\xea\xc4(@\xf2?'
p5163
tp5164
Rp5165
ag14
(g15
(I0
tp5166
g17
tp5167
Rp5168
(I1
(tg8
I00
S' w\xf8\x95\xc8\x80\xf5?'
p5169
tp5170
bag4
(g8
S'\xbbO~\n\x98\x8d\xf2?'
p5171
tp5172
Rp5173
ag14
(g15
(I0
tp5174
g17
tp5175
Rp5176
(I1
(tg8
I00
S'&\x9e2\x83\x1f\xf7\xf7?'
p5177
tp5178
baa(lp5179
g877
ag4
(g8
S'\xd2\x96\xaf\x92(|\xf2?'
p5180
tp5181
Rp5182
ag14
(g15
(I0
tp5183
g17
tp5184
Rp5185
(I1
(tg8
I00
S'3\x06\x0b<\xb2\xbc\xf5?'
p5186
tp5187
bag4
(g8
S'L\x86=\xeer\x8d\xf2?'
p5188
tp5189
Rp5190
ag14
(g15
(I0
tp5191
g17
tp5192
Rp5193
(I1
(tg8
I00
S'\n\xf4\r\xa9Y\xf9\xf7?'
p5194
tp5195
baa(lp5196
g895
ag4
(g8
S'G\xc7\xfc\xce\x0c\x99\xf2?'
p5197
tp5198
Rp5199
ag14
(g15
(I0
tp5200
g17
tp5201
Rp5202
(I1
(tg8
I00
S'V\xd3{\xd0s\xe0\xf5?'
p5203
tp5204
bag4
(g8
S'\x16a\x0b\xb7w\xee\xf2?'
p5205
tp5206
Rp5207
ag14
(g15
(I0
tp5208
g17
tp5209
Rp5210
(I1
(tg8
I00
S'z\xee%\xe0\xbao\xf8?'
p5211
tp5212
baa(lp5213
g913
ag4
(g8
S'\x896\x91\xad,/\xf2?'
p5214
tp5215
Rp5216
ag14
(g15
(I0
tp5217
g17
tp5218
Rp5219
(I1
(tg8
I00
S'\x88\xfb\x13\x07\x82\xd9\xf1?'
p5220
tp5221
bag4
(g8
S'[=!\xbe\xc4\xa7\xf2?'
p5222
tp5223
Rp5224
ag14
(g15
(I0
tp5225
g17
tp5226
Rp5227
(I1
(tg8
I00
S'\xfd\x8d#H\x93{\xf4?'
p5228
tp5229
baa(lp5230
g931
ag4
(g8
S'x9\x1dF\x83\x13\xf2?'
p5231
tp5232
Rp5233
ag14
(g15
(I0
tp5234
g17
tp5235
Rp5236
(I1
(tg8
I00
S'T\xd2b\x1f\xba\xc1\xf1?'
p5237
tp5238
bag4
(g8
S'8\x80\xff\xf6|\xaf\xf2?'
p5239
tp5240
Rp5241
ag14
(g15
(I0
tp5242
g17
tp5243
Rp5244
(I1
(tg8
I00
S'q\xd5\xc2\x00\x03\xb0\xf4?'
p5245
tp5246
baa(lp5247
g949
ag4
(g8
S'\x947\xdd[\x82\xe7\xf1?'
p5248
tp5249
Rp5250
ag14
(g15
(I0
tp5251
g17
tp5252
Rp5253
(I1
(tg8
I00
S'\xfd\xcb\xbb\xc5\xe2c\xf1?'
p5254
tp5255
bag4
(g8
S'\xa4m\x1a\xffq\xc3\xf2?'
p5256
tp5257
Rp5258
ag14
(g15
(I0
tp5259
g17
tp5260
Rp5261
(I1
(tg8
I00
S'\xb5\xf6\xd0\xafEt\xf4?'
p5262
tp5263
baa(lp5264
g967
ag4
(g8
S'\xf5d\x80y\x9d\xc2\xf1?'
p5265
tp5266
Rp5267
ag14
(g15
(I0
tp5268
g17
tp5269
Rp5270
(I1
(tg8
I00
S':S\x17\xf0#2\xf1?'
p5271
tp5272
bag4
(g8
S'X\x18P\xdaM\x12\xf2?'
p5273
tp5274
Rp5275
ag14
(g15
(I0
tp5276
g17
tp5277
Rp5278
(I1
(tg8
I00
S'i5\x90\xc1\xd6\x90\xf3?'
p5279
tp5280
baa(lp5281
g985
ag4
(g8
S'"Ik\x18\x07\x9b\xf5?'
p5282
tp5283
Rp5284
ag14
(g15
(I0
tp5285
g17
tp5286
Rp5287
(I1
(tg8
I00
S'-\xe5\xda\xe7\x06\x9c\x04@'
p5288
tp5289
bag4
(g8
S'\xe5"\xe0:F\xdb\xf5?'
p5290
tp5291
Rp5292
ag14
(g15
(I0
tp5293
g17
tp5294
Rp5295
(I1
(tg8
I00
S'\xd5y\\\xa9\xfa\x8a\x05@'
p5296
tp5297
baa(lp5298
g1003
ag4
(g8
S'\x7f\xc3\xf5\x06k\x92\xf5?'
p5299
tp5300
Rp5301
ag14
(g15
(I0
tp5302
g17
tp5303
Rp5304
(I1
(tg8
I00
S'r8n\xc5;|\x04@'
p5305
tp5306
bag4
(g8
S')\x8a\x8b\xd9\\\xd6\xf5?'
p5307
tp5308
Rp5309
ag14
(g15
(I0
tp5310
g17
tp5311
Rp5312
(I1
(tg8
I00
S"\x1eH'\xac\x11m\x05@"
p5313
tp5314
baa(lp5315
g1021
ag4
(g8
S'\x89(\xae\xc7\xf7\x9d\xf5?'
p5316
tp5317
Rp5318
ag14
(g15
(I0
tp5319
g17
tp5320
Rp5321
(I1
(tg8
I00
S'\x0f\xc9E\xabF\x90\x04@'
p5322
tp5323
bag4
(g8
S'{\xcb<\xf9\x8e\xd8\xf5?'
p5324
tp5325
Rp5326
ag14
(g15
(I0
tp5327
g17
tp5328
Rp5329
(I1
(tg8
I00
S'\xd8\x89\xf1[hx\x05@'
p5330
tp5331
baa(lp5332
g1039
ag4
(g8
S'\xbe&\x96A\x81\x99\xf1?'
p5333
tp5334
Rp5335
ag14
(g15
(I0
tp5336
g17
tp5337
Rp5338
(I1
(tg8
I00
S'\x03\xea6\xe7\xef\xdb\xf4?'
p5339
tp5340
bag4
(g8
S'e\x80`\xdd\xb7 \xf2?'
p5341
tp5342
Rp5343
ag14
(g15
(I0
tp5344
g17
tp5345
Rp5346
(I1
(tg8
I00
S'\x89>\x8b\xe7\x89\x82\xf7?'
p5347
tp5348
baa(lp5349
g1057
ag4
(g8
S'\xc2\xd7\xde\xba\x7f\x96\xf1?'
p5350
tp5351
Rp5352
ag14
(g15
(I0
tp5353
g17
tp5354
Rp5355
(I1
(tg8
I00
S'\x94BA[Y\xf3\xf4?'
p5356
tp5357
bag4
(g8
S'\xec#\xf4b\x17%\xf2?'
p5358
tp5359
Rp5360
ag14
(g15
(I0
tp5361
g17
tp5362
Rp5363
(I1
(tg8
I00
S'\xd6z&\xdaL\xbe\xf7?'
p5364
tp5365
baa(lp5366
g1075
ag4
(g8
S'tY0DO\xf1\xf1?'
p5367
tp5368
Rp5369
ag14
(g15
(I0
tp5370
g17
tp5371
Rp5372
(I1
(tg8
I00
S'O\xb4\x9a\xfc\xddR\xf5?'
p5373
tp5374
bag4
(g8
S'\xe4^Y\xb0\xdb\x7f\xf2?'
p5375
tp5376
Rp5377
ag14
(g15
(I0
tp5378
g17
tp5379
Rp5380
(I1
(tg8
I00
S'\xa0Dy\xc33\x1e\xf8?'
p5381
tp5382
baa(lp5383
g1093
ag4
(g8
S'\xc7\xd9k\x82.\x06\xf1?'
p5384
tp5385
Rp5386
ag14
(g15
(I0
tp5387
g17
tp5388
Rp5389
(I1
(tg8
I00
S'\xa0\xf0\x0e\xb426\xf0?'
p5390
tp5391
bag4
(g8
S'\xb6\x13\xcex\xc0\xc4\xf1?'
p5392
tp5393
Rp5394
ag14
(g15
(I0
tp5395
g17
tp5396
Rp5397
(I1
(tg8
I00
S'\xf4Y\x8e\x13.P\xf3?'
p5398
tp5399
baa(lp5400
g1111
ag4
(g8
S'\xf7\x99%\x19\xc0\xe9\xf0?'
p5401
tp5402
Rp5403
ag14
(g15
(I0
tp5404
g17
tp5405
Rp5406
(I1
(tg8
I00
S':z\xe0\xdd\xf9\x08\xf0?'
p5407
tp5408
bag4
(g8
S'{s \xfb\x8c\x15\xf2?'
p5409
tp5410
Rp5411
ag14
(g15
(I0
tp5412
g17
tp5413
Rp5414
(I1
(tg8
I00
S'[$P\xe8\x18b\xf4?'
p5415
tp5416
baa(lp5417
g1129
ag4
(g8
S'\xf0\xbb\xbd\x0f~\xd5\xf0?'
p5418
tp5419
Rp5420
ag14
(g15
(I0
tp5421
g17
tp5422
Rp5423
(I1
(tg8
I00
S'\xfc\xb8\x8b\xd4\xf8\xf5\xef?'
p5424
tp5425
bag4
(g8
S'\x14\xd4\x01~\xeb\x9e\xf1?'
p5426
tp5427
Rp5428
ag14
(g15
(I0
tp5429
g17
tp5430
Rp5431
(I1
(tg8
I00
S'_\xa3\x8b;\x16\x08\xf3?'
p5432
tp5433
baaa.